(dp0
L32768L
S'SGAS_P2'
p1
sL1L
S'SGAS_P4'
p2
sL2L
g2
sL3L
g2
sL4L
S'SGAS_P3'
p3
sL5L
g2
sL6L
g3
sL7L
g2
sL8L
g2
sL9L
g3
sL10L
g1
sL11L
g1
sL12L
g2
sL13L
g2
sL14L
g1
sL15L
g1
sL16L
g2
sL17L
g3
sL18L
g2
sL19L
g2
sL20L
g2
sL21L
g3
sL22L
g3
sL23L
g2
sL24L
g3
sL25L
g2
sL26L
g2
sL27L
g3
sL28L
g3
sL29L
g1
sL30L
g3
sL31L
g3
sL32L
g2
sL33L
g1
sL34L
g3
sL35L
g1
sL36L
g3
sL37L
g1
sL38L
g1
sL39L
g3
sL40L
g3
sL41L
g3
sL42L
g2
sL43L
g3
sL44L
g3
sL45L
g2
sL46L
g3
sL47L
g2
sL48L
g1
sL49L
g3
sL50L
g3
sL51L
g2
sL52L
g2
sL53L
g1
sL54L
g2
sL55L
g2
sL56L
g2
sL57L
g3
sL58L
g1
sL59L
g1
sL60L
g3
sL61L
g3
sL62L
g2
sL63L
g3
sL64L
g3
sL65L
g3
sL66L
g3
sL67L
g2
sL68L
g1
sL69L
g3
sL70L
g3
sL71L
g1
sL72L
g3
sL73L
S'SGAS_P1'
p4
sL74L
g1
sL75L
g3
sL76L
g3
sL77L
g3
sL78L
g3
sL79L
g3
sL80L
g2
sL81L
g2
sL82L
g2
sL83L
g2
sL84L
g2
sL85L
g2
sL86L
g2
sL87L
g3
sL88L
g3
sL89L
g3
sL90L
g2
sL91L
g2
sL92L
g3
sL93L
g2
sL94L
g4
sL95L
g3
sL96L
g2
sL97L
g3
sL98L
g1
sL99L
g2
sL100L
g2
sL101L
g3
sL102L
g2
sL103L
g1
sL104L
g2
sL105L
g3
sL106L
g2
sL107L
g2
sL108L
g2
sL109L
g3
sL110L
g3
sL111L
g3
sL112L
g3
sL113L
g3
sL114L
g2
sL115L
g3
sL116L
g3
sL117L
g2
sL118L
g3
sL119L
g1
sL120L
g3
sL121L
g4
sL122L
g3
sL123L
g2
sL124L
g3
sL32893L
g3
sL127L
g3
sL128L
g2
sL129L
g2
sL130L
g3
sL131L
g1
sL132L
g3
sL133L
g3
sL134L
g4
sL136L
g1
sL137L
g2
sL32906L
g2
sL139L
g3
sL140L
g2
sL142L
g3
sL143L
g2
sL144L
g3
sL146L
g3
sL147L
g3
sL148L
g3
sL149L
g1
sL151L
g2
sL152L
g3
sL153L
g2
sL155L
g3
sL156L
g3
sL157L
g1
sL158L
g2
sL160L
g1
sL161L
g2
sL162L
g1
sL163L
g2
sL164L
g3
sL165L
g2
sL167L
g2
sL169L
g1
sL170L
g3
sL171L
g1
sL173L
g3
sL175L
g1
sL177L
g2
sL178L
g2
sL179L
g3
sL182L
g1
sL183L
g1
sL185L
g3
sL186L
g3
sL32955L
g4
sL188L
g3
sL190L
g3
sL191L
g3
sL192L
g2
sL193L
g3
sL194L
g3
sL195L
g1
sL196L
g1
sL197L
g4
sL199L
g3
sL200L
g3
sL201L
g3
sL203L
g1
sL204L
g2
sL32973L
g3
sL206L
g2
sL207L
g3
sL209L
g3
sL210L
g1
sL211L
g3
sL212L
g3
sL213L
g2
sL215L
g2
sL216L
g3
sL217L
g3
sL219L
g3
sL220L
g4
sL222L
g3
sL223L
g3
sL224L
g2
sL225L
g2
sL227L
g3
sL228L
g3
sL229L
g3
sL232L
g3
sL233L
g3
sL234L
g3
sL33003L
g2
sL236L
g4
sL33005L
g1
sL239L
g2
sL33008L
g3
sL241L
g2
sL242L
g1
sL243L
g3
sL244L
g3
sL245L
g2
sL248L
g3
sL249L
g2
sL250L
g4
sL251L
g2
sL252L
g2
sL253L
g1
sL254L
g2
sL255L
g3
sL256L
g3
sL257L
g2
sL258L
g2
sL259L
g3
sL260L
g3
sL261L
g3
sL262L
g2
sL263L
g3
sL264L
g3
sL265L
g2
sL266L
g2
sL267L
g3
sL268L
g3
sL269L
g2
sL270L
g2
sL271L
g3
sL272L
g2
sL273L
g3
sL274L
g3
sL275L
g3
sL276L
g3
sL277L
g1
sL278L
g2
sL279L
g3
sL280L
g3
sL281L
g3
sL282L
g3
sL283L
g2
sL284L
g2
sL285L
g2
sL286L
g2
sL287L
g2
sL288L
g1
sL289L
g3
sL290L
g2
sL291L
g2
sL292L
g1
sL293L
g2
sL294L
g2
sL295L
g2
sL296L
g2
sL297L
g1
sL298L
g3
sL299L
g1
sL300L
g3
sL301L
g2
sL302L
g2
sL303L
g3
sL304L
g3
sL305L
g3
sL306L
g2
sL307L
g2
sL308L
g2
sL33077L
g2
sL310L
g1
sL311L
g2
sL312L
g2
sL313L
g3
sL314L
g2
sL315L
g3
sL316L
g3
sL317L
g3
sL318L
g3
sL319L
g3
sL320L
g2
sL321L
g2
sL322L
g2
sL323L
g2
sL324L
g2
sL325L
g3
sL326L
g2
sL327L
g2
sL328L
g3
sL329L
g2
sL330L
g3
sL331L
g2
sL332L
g2
sL333L
g2
sL334L
g2
sL335L
g3
sL336L
g3
sL33105L
g3
sL338L
g3
sL339L
g2
sL340L
g2
sL341L
g2
sL342L
g3
sL343L
g1
sL344L
g4
sL345L
g3
sL346L
g2
sL347L
g3
sL348L
g1
sL349L
g3
sL350L
g2
sL351L
g2
sL352L
g2
sL353L
g2
sL354L
g2
sL355L
g2
sL356L
g2
sL357L
g2
sL358L
g2
sL359L
g2
sL360L
g2
sL361L
g3
sL362L
g2
sL363L
g2
sL364L
g2
sL365L
g2
sL366L
g2
sL367L
g2
sL368L
g2
sL369L
g2
sL370L
g2
sL371L
g2
sL372L
g2
sL373L
g2
sL374L
g2
sL375L
g2
sL376L
g3
sL377L
g3
sL378L
g2
sL33147L
g2
sL33148L
g3
sL381L
g2
sL382L
g2
sL383L
g2
sL384L
g1
sL385L
g3
sL386L
g3
sL33156L
g2
sL389L
g3
sL33159L
g3
sL392L
g1
sL393L
g2
sL394L
g2
sL395L
g2
sL396L
g2
sL397L
g2
sL398L
g1
sL399L
g3
sL400L
g2
sL401L
g2
sL402L
g2
sL403L
g2
sL404L
g4
sL405L
g2
sL406L
g2
sL407L
g1
sL408L
g2
sL409L
g3
sL410L
g3
sL411L
g3
sL412L
g3
sL413L
g2
sL414L
g2
sL415L
g2
sL416L
g2
sL417L
g2
sL418L
g2
sL419L
g2
sL420L
g2
sL421L
g2
sL422L
g1
sL423L
g3
sL424L
g3
sL425L
g1
sL426L
g2
sL427L
g2
sL428L
g3
sL429L
g1
sL430L
g3
sL431L
g2
sL432L
g3
sL433L
g2
sL434L
g2
sL435L
g3
sL436L
g1
sL437L
g2
sL438L
g3
sL439L
g3
sL440L
g3
sL441L
g2
sL442L
g3
sL443L
g3
sL444L
g3
sL445L
g3
sL446L
g2
sL447L
g2
sL448L
g3
sL449L
g1
sL450L
g2
sL451L
g2
sL452L
g3
sL453L
g2
sL454L
g1
sL455L
g2
sL456L
g2
sL457L
g1
sL458L
g3
sL459L
g1
sL460L
g3
sL461L
g4
sL462L
g1
sL463L
g2
sL464L
g3
sL465L
g4
sL466L
g2
sL467L
g3
sL468L
g2
sL469L
g3
sL470L
g3
sL471L
g3
sL472L
g2
sL473L
g3
sL474L
g1
sL475L
g3
sL476L
g1
sL477L
g3
sL478L
g2
sL479L
g1
sL480L
g2
sL481L
g2
sL482L
g1
sL483L
g3
sL484L
g3
sL485L
g3
sL486L
g2
sL487L
g2
sL488L
g2
sL489L
g1
sL490L
g3
sL491L
g1
sL492L
g3
sL493L
g1
sL494L
g1
sL33263L
g2
sL496L
g3
sL497L
g4
sL498L
g3
sL499L
g3
sL500L
g2
sL501L
g2
sL502L
g3
sL503L
g3
sL504L
g3
sL505L
g3
sL506L
g3
sL507L
g2
sL508L
g3
sL509L
g3
sL510L
g3
sL511L
g3
sL512L
g3
sL513L
g1
sL514L
g3
sL515L
g2
sL516L
g1
sL517L
g2
sL518L
g3
sL519L
g2
sL520L
g2
sL521L
g2
sL522L
g3
sL523L
g2
sL524L
g2
sL525L
g1
sL526L
g3
sL527L
g3
sL33296L
g3
sL529L
g3
sL530L
g3
sL531L
g1
sL532L
g2
sL533L
g2
sL534L
g1
sL535L
g3
sL536L
g2
sL537L
g2
sL538L
g2
sL539L
g2
sL540L
g2
sL541L
g3
sL542L
g2
sL543L
g2
sL544L
g2
sL545L
g2
sL547L
g3
sL548L
g2
sL549L
g1
sL550L
g2
sL551L
g2
sL552L
g2
sL553L
g3
sL554L
g3
sL555L
g2
sL556L
g2
sL33325L
g2
sL558L
g3
sL559L
g2
sL560L
g1
sL561L
g2
sL562L
g2
sL563L
g2
sL564L
g3
sL565L
g2
sL566L
g2
sL567L
g3
sL568L
g2
sL569L
g2
sL570L
g3
sL571L
g1
sL572L
g3
sL573L
g2
sL574L
g2
sL575L
g3
sL576L
g2
sL577L
g3
sL578L
g1
sL579L
g3
sL580L
g3
sL581L
g3
sL582L
g2
sL583L
g3
sL584L
g1
sL585L
g3
sL586L
g3
sL587L
g2
sL588L
g3
sL589L
g3
sL590L
g1
sL33359L
g2
sL592L
g2
sL593L
g2
sL594L
g1
sL595L
g1
sL596L
g3
sL597L
g4
sL598L
g3
sL599L
g2
sL600L
g2
sL601L
g2
sL602L
g1
sL604L
g1
sL605L
g3
sL606L
g2
sL607L
g2
sL608L
g2
sL609L
g2
sL610L
g3
sL611L
g3
sL612L
g2
sL613L
g3
sL614L
g3
sL615L
g4
sL616L
g3
sL617L
g3
sL618L
g3
sL32871L
g2
sL620L
g3
sL622L
g3
sL33391L
g2
sL624L
g3
sL625L
g3
sL626L
g3
sL627L
g1
sL628L
g4
sL629L
g3
sL630L
g2
sL631L
g3
sL632L
g2
sL633L
g3
sL634L
g3
sL635L
g3
sL636L
g3
sL637L
g1
sL33406L
g3
sL639L
g1
sL640L
g3
sL641L
g3
sL642L
g3
sL643L
g2
sL645L
g3
sL646L
g3
sL33415L
g3
sL648L
g1
sL649L
g2
sL650L
g1
sL651L
g1
sL652L
g2
sL653L
g3
sL654L
g3
sL33424L
g1
sL657L
g3
sL33426L
g2
sL659L
g3
sL660L
g1
sL663L
g3
sL664L
g3
sL665L
g2
sL666L
g3
sL667L
g3
sL668L
g1
sL669L
g4
sL670L
g3
sL671L
g3
sL672L
g1
sL673L
g1
sL674L
g3
sL675L
g2
sL676L
g1
sL33445L
g2
sL678L
g3
sL680L
g2
sL681L
g3
sL682L
g3
sL683L
g2
sL684L
g2
sL685L
g2
sL686L
g3
sL687L
g1
sL688L
g1
sL689L
g3
sL690L
g2
sL691L
g2
sL692L
g3
sL693L
g3
sL694L
g2
sL695L
g4
sL696L
g1
sL33465L
g2
sL698L
g3
sL699L
g2
sL700L
g1
sL701L
g2
sL702L
g2
sL33471L
g1
sL704L
g1
sL705L
g2
sL706L
g3
sL707L
g2
sL33476L
g2
sL709L
g2
sL710L
g3
sL711L
g3
sL712L
g3
sL713L
g3
sL714L
g2
sL715L
g3
sL716L
g2
sL33485L
g2
sL718L
g4
sL719L
g3
sL33488L
g1
sL721L
g2
sL722L
g3
sL723L
g1
sL724L
g2
sL725L
g2
sL32889L
g3
sL728L
g3
sL729L
g4
sL730L
g1
sL33499L
g1
sL733L
g2
sL734L
g3
sL735L
g1
sL736L
g3
sL737L
g1
sL738L
g2
sL739L
g2
sL740L
g2
sL741L
g3
sL742L
g2
sL743L
g2
sL744L
g2
sL32892L
g3
sL747L
g2
sL748L
g2
sL749L
g2
sL750L
g2
sL751L
g2
sL752L
g2
sL753L
g1
sL33522L
g2
sL755L
g1
sL756L
g2
sL757L
g3
sL758L
g3
sL33528L
g2
sL761L
g3
sL762L
g3
sL763L
g2
sL764L
g3
sL765L
g3
sL766L
g3
sL768L
g3
sL769L
g1
sL770L
g3
sL33539L
g1
sL772L
g2
sL773L
g2
sL775L
g3
sL776L
g2
sL777L
g2
sL778L
g3
sL779L
g3
sL780L
g3
sL781L
g4
sL782L
g2
sL783L
g2
sL784L
g2
sL785L
g2
sL786L
g3
sL787L
g3
sL788L
g2
sL789L
g2
sL790L
g2
sL791L
g1
sL792L
g3
sL793L
g3
sL794L
g2
sL795L
g2
sL796L
g1
sL797L
g1
sL33566L
g2
sL799L
g3
sL800L
g3
sL801L
g1
sL802L
g3
sL33571L
g3
sL804L
g3
sL32902L
g2
sL806L
g2
sL807L
g3
sL808L
g2
sL809L
g2
sL810L
g3
sL811L
g2
sL812L
g2
sL813L
g3
sL814L
g2
sL815L
g3
sL816L
g3
sL817L
g1
sL818L
g2
sL819L
g3
sL820L
g3
sL821L
g3
sL33590L
g3
sL33591L
g3
sL824L
g3
sL825L
g3
sL33594L
g2
sL827L
g2
sL828L
g2
sL829L
g2
sL830L
g1
sL831L
g3
sL832L
g2
sL833L
g1
sL835L
g1
sL836L
g1
sL837L
g2
sL33606L
g1
sL839L
g3
sL840L
g3
sL841L
g2
sL842L
g1
sL843L
g4
sL845L
g4
sL846L
g2
sL847L
g2
sL848L
g2
sL849L
g2
sL850L
g4
sL851L
g3
sL852L
g2
sL853L
g1
sL854L
g3
sL33623L
g2
sL856L
g3
sL857L
g1
sL33626L
g1
sL859L
g2
sL861L
g1
sL862L
g3
sL863L
g2
sL864L
g2
sL32912L
g2
sL866L
g2
sL867L
g2
sL868L
g1
sL869L
g3
sL870L
g3
sL871L
g3
sL872L
g3
sL873L
g3
sL874L
g2
sL33643L
g1
sL876L
g2
sL877L
g2
sL878L
g2
sL879L
g3
sL880L
g3
sL881L
g3
sL882L
g2
sL883L
g2
sL884L
g3
sL885L
g2
sL886L
g3
sL887L
g3
sL888L
g1
sL889L
g3
sL891L
g2
sL33660L
g1
sL893L
g3
sL894L
g2
sL897L
g2
sL898L
g2
sL900L
g4
sL901L
g2
sL902L
g1
sL904L
g1
sL905L
g2
sL906L
g2
sL32919L
g2
sL908L
g1
sL33677L
g2
sL910L
g3
sL911L
g1
sL912L
g1
sL913L
g2
sL914L
g3
sL915L
g2
sL916L
g1
sL917L
g2
sL33686L
g1
sL919L
g2
sL921L
g3
sL922L
g3
sL923L
g3
sL924L
g1
sL925L
g2
sL926L
g2
sL927L
g2
sL928L
g2
sL929L
g2
sL930L
g1
sL931L
g3
sL932L
g2
sL933L
g1
sL934L
g2
sL935L
g2
sL936L
g2
sL33706L
g3
sL939L
g3
sL940L
g1
sL942L
g3
sL33711L
g3
sL944L
g1
sL945L
g1
sL33714L
g3
sL947L
g3
sL33716L
g3
sL949L
g3
sL33718L
g1
sL951L
g3
sL952L
g3
sL953L
g3
sL954L
g2
sL955L
g3
sL33724L
g2
sL958L
g3
sL959L
g3
sL960L
g1
sL961L
g3
sL962L
g2
sL963L
g3
sL964L
g2
sL965L
g3
sL967L
g2
sL968L
g3
sL969L
g2
sL970L
g3
sL971L
g2
sL972L
g2
sL33741L
g2
sL33742L
g1
sL975L
g1
sL976L
g2
sL977L
g2
sL978L
g2
sL979L
g2
sL980L
g1
sL33749L
g2
sL982L
g3
sL983L
g3
sL984L
g2
sL985L
g3
sL986L
g3
sL987L
g2
sL988L
g3
sL989L
g3
sL33758L
g2
sL991L
g2
sL992L
g2
sL994L
g1
sL995L
g1
sL996L
g2
sL997L
g3
sL998L
g2
sL999L
g2
sL1000L
g1
sL1001L
g3
sL1002L
g3
sL33771L
g1
sL1004L
g1
sL1005L
g2
sL1006L
g2
sL1007L
g2
sL1008L
g2
sL33777L
g4
sL33779L
g1
sL1012L
g2
sL1014L
g2
sL1015L
g3
sL1016L
g1
sL33785L
g2
sL33786L
g1
sL1019L
g3
sL1020L
g3
sL1021L
g2
sL1022L
g2
sL1023L
g3
sL1024L
g3
sL1025L
g2
sL1026L
g2
sL1027L
g2
sL1028L
g3
sL1029L
g1
sL1030L
g3
sL1031L
g3
sL1032L
g4
sL1033L
g2
sL1034L
g1
sL1035L
g2
sL1037L
g2
sL1038L
g1
sL1039L
g3
sL1040L
g2
sL1041L
g2
sL1042L
g1
sL1044L
g1
sL1045L
g3
sL1046L
g3
sL1047L
g2
sL1048L
g3
sL1049L
g1
sL1050L
g1
sL1051L
g2
sL1052L
g1
sL1053L
g1
sL33822L
g2
sL1055L
g2
sL1056L
g2
sL1057L
g4
sL1058L
g1
sL1059L
g3
sL1060L
g4
sL1062L
g1
sL1063L
g3
sL1064L
g2
sL1065L
g2
sL1066L
g2
sL1067L
g2
sL1068L
g3
sL1069L
g2
sL1070L
g2
sL1071L
g3
sL1073L
g3
sL1074L
g2
sL1075L
g3
sL1076L
g3
sL1077L
g3
sL1078L
g3
sL1079L
g3
sL1080L
g2
sL1082L
g2
sL1083L
g3
sL1084L
g2
sL1085L
g3
sL1086L
g3
sL33856L
g3
sL1089L
g1
sL1090L
g2
sL1091L
g2
sL1092L
g2
sL1093L
g1
sL1094L
g3
sL1095L
g3
sL1096L
g1
sL1097L
g2
sL1098L
g3
sL1099L
g2
sL1100L
g3
sL1101L
g2
sL1102L
g3
sL1103L
g2
sL1104L
g2
sL1105L
g2
sL1106L
g3
sL1107L
g1
sL1108L
g2
sL1109L
g3
sL1110L
g3
sL32953L
g3
sL1112L
g2
sL1113L
g1
sL1114L
g4
sL1115L
g1
sL1116L
g2
sL1117L
g2
sL1118L
g3
sL1121L
g3
sL1122L
g2
sL1123L
g3
sL1124L
g3
sL1125L
g4
sL1126L
g2
sL1127L
g2
sL1128L
g3
sL1129L
g1
sL1130L
g2
sL1131L
g2
sL1132L
g3
sL1133L
g2
sL1134L
g2
sL1135L
g3
sL1136L
g2
sL1138L
g1
sL33907L
g2
sL1141L
g1
sL1142L
g3
sL1143L
g2
sL1144L
g2
sL1145L
g1
sL1146L
g3
sL1147L
g2
sL1148L
g2
sL1149L
g3
sL1150L
g3
sL1151L
g2
sL1152L
g2
sL1153L
g1
sL33922L
g3
sL33923L
g3
sL1157L
g3
sL1158L
g3
sL1159L
g3
sL1160L
g2
sL1161L
g1
sL1162L
g2
sL1163L
g3
sL1164L
g3
sL1165L
g2
sL1166L
g3
sL1167L
g3
sL1168L
g1
sL1169L
g2
sL1171L
g2
sL1172L
g3
sL1173L
g3
sL1174L
g1
sL1175L
g2
sL1176L
g3
sL1177L
g3
sL1178L
g2
sL1179L
g2
sL1180L
g2
sL1181L
g2
sL1182L
g2
sL1183L
g2
sL1184L
g1
sL1185L
g2
sL1186L
g2
sL1187L
g3
sL1188L
g1
sL1190L
g3
sL1191L
g2
sL1192L
g2
sL1193L
g2
sL1194L
g2
sL1196L
g3
sL1197L
g2
sL1198L
g3
sL1200L
g3
sL1201L
g1
sL1202L
g3
sL1203L
g3
sL1204L
g1
sL33973L
g2
sL1206L
g2
sL1207L
g3
sL1209L
g2
sL1210L
g2
sL1211L
g1
sL33980L
g1
sL1214L
g2
sL1215L
g3
sL1216L
g2
sL1217L
g3
sL1218L
g2
sL1219L
g3
sL1221L
g3
sL1222L
g2
sL1223L
g1
sL1224L
g1
sL1225L
g3
sL1226L
g3
sL1227L
g3
sL33996L
g3
sL1229L
g3
sL1230L
g1
sL1231L
g2
sL34000L
g3
sL1233L
g3
sL1234L
g1
sL1235L
g1
sL1236L
g4
sL1238L
g2
sL1239L
g3
sL1240L
g3
sL1241L
g3
sL1243L
g2
sL1244L
g2
sL1245L
g3
sL1247L
g2
sL1248L
g1
sL1249L
g1
sL1250L
g1
sL1251L
g3
sL1252L
g1
sL1253L
g2
sL1254L
g3
sL1255L
g3
sL1256L
g1
sL1257L
g2
sL1258L
g1
sL1259L
g3
sL1262L
g2
sL1264L
g2
sL1265L
g3
sL1266L
g1
sL1267L
g2
sL1268L
g2
sL1269L
g3
sL1270L
g3
sL1271L
g1
sL1272L
g2
sL1273L
g2
sL1274L
g1
sL1275L
g3
sL1276L
g2
sL1277L
g3
sL1278L
g2
sL1279L
g2
sL1280L
g1
sL1281L
g3
sL1282L
g3
sL1283L
g4
sL1284L
g3
sL1285L
g2
sL1287L
g3
sL1288L
g3
sL1289L
g3
sL1290L
g2
sL1291L
g3
sL1292L
g3
sL1293L
g3
sL1294L
g1
sL1296L
g3
sL32984L
g3
sL1298L
g2
sL1299L
g2
sL1300L
g1
sL1301L
g3
sL1302L
g3
sL1303L
g3
sL1304L
g1
sL1305L
g2
sL1307L
g3
sL1308L
g1
sL1309L
g2
sL1310L
g2
sL1311L
g3
sL1312L
g3
sL1313L
g1
sL1315L
g2
sL1316L
g3
sL1317L
g3
sL1318L
g2
sL1319L
g2
sL1320L
g3
sL1321L
g1
sL1322L
g3
sL1323L
g1
sL1324L
g2
sL34093L
g2
sL1326L
g2
sL1327L
g2
sL1328L
g3
sL1329L
g2
sL1330L
g2
sL1331L
g3
sL1332L
g3
sL1333L
g2
sL1335L
g1
sL1336L
g3
sL1337L
g1
sL1338L
g3
sL1339L
g3
sL1340L
g3
sL1341L
g2
sL1342L
g3
sL1344L
g3
sL1345L
g2
sL1346L
g3
sL1347L
g3
sL1348L
g3
sL1349L
g3
sL1350L
g1
sL1351L
g1
sL1352L
g1
sL1353L
g1
sL1354L
g2
sL1355L
g2
sL1356L
g3
sL1358L
g2
sL1359L
g3
sL1362L
g3
sL1363L
g2
sL1364L
g1
sL1365L
g2
sL1366L
g2
sL1367L
g2
sL1369L
g3
sL1371L
g4
sL1372L
g4
sL1373L
g2
sL1374L
g3
sL1375L
g2
sL1377L
g3
sL1378L
g2
sL1379L
g1
sL1380L
g1
sL1381L
g1
sL1382L
g3
sL1383L
g3
sL1384L
g2
sL1385L
g3
sL1386L
g2
sL1387L
g1
sL1388L
g3
sL1389L
g1
sL1390L
g2
sL1391L
g2
sL1392L
g3
sL1393L
g2
sL1394L
g3
sL1395L
g2
sL1396L
g2
sL1397L
g2
sL1400L
g3
sL1401L
g2
sL1402L
g2
sL1403L
g1
sL1405L
g2
sL1406L
g2
sL1407L
g1
sL1408L
g3
sL1410L
g3
sL1411L
g1
sL1412L
g3
sL1413L
g2
sL1414L
g3
sL1416L
g3
sL1417L
g2
sL1418L
g3
sL1421L
g2
sL1422L
g2
sL1423L
g1
sL1424L
g2
sL1425L
g3
sL1427L
g2
sL1428L
g2
sL1429L
g2
sL1431L
g3
sL1432L
g3
sL1433L
g3
sL1434L
g1
sL1435L
g3
sL1436L
g1
sL1438L
g2
sL1440L
g2
sL1441L
g1
sL1442L
g2
sL1443L
g2
sL1444L
g4
sL1445L
g2
sL1447L
g1
sL1448L
g2
sL1449L
g4
sL1450L
g2
sL1451L
g3
sL1452L
g3
sL1453L
g3
sL1454L
g3
sL1455L
g3
sL1456L
g4
sL1457L
g4
sL1458L
g2
sL1459L
g1
sL1461L
g2
sL1462L
g3
sL1463L
g1
sL1464L
g1
sL1465L
g2
sL1468L
g3
sL1469L
g1
sL1471L
g2
sL1472L
g3
sL1473L
g2
sL1474L
g1
sL1476L
g3
sL1477L
g2
sL1478L
g2
sL1480L
g1
sL1481L
g2
sL1482L
g3
sL1483L
g3
sL1484L
g1
sL1485L
g2
sL1486L
g2
sL1487L
g2
sL1488L
g1
sL1489L
g2
sL1490L
g3
sL1491L
g2
sL1492L
g1
sL1493L
g2
sL1494L
g3
sL1496L
g1
sL1497L
g1
sL1499L
g1
sL1500L
g3
sL1501L
g2
sL1502L
g2
sL1503L
g2
sL1504L
g3
sL1505L
g1
sL1506L
g3
sL33019L
g3
sL1508L
g2
sL1509L
g1
sL1510L
g3
sL1512L
g2
sL1514L
g3
sL1515L
g2
sL1516L
g4
sL1517L
g2
sL1518L
g3
sL1519L
g3
sL1520L
g2
sL1521L
g1
sL1522L
g1
sL1523L
g1
sL1524L
g2
sL1525L
g2
sL1527L
g3
sL1528L
g1
sL1529L
g3
sL1530L
g1
sL1532L
g3
sL1533L
g3
sL1534L
g3
sL1535L
g1
sL1536L
g2
sL1537L
g2
sL1538L
g2
sL1539L
g3
sL1540L
g3
sL1541L
g1
sL1542L
g3
sL1543L
g1
sL1544L
g3
sL1547L
g2
sL1548L
g2
sL1549L
g1
sL1550L
g1
sL1552L
g1
sL1555L
g3
sL1557L
g3
sL1558L
g3
sL1559L
g1
sL1560L
g3
sL1561L
g1
sL1562L
g3
sL1563L
g4
sL1564L
g1
sL1565L
g1
sL1566L
g3
sL33029L
g2
sL1568L
g2
sL1569L
g3
sL1570L
g2
sL1572L
g1
sL1573L
g3
sL1574L
g3
sL1575L
g3
sL1577L
g3
sL1578L
g2
sL1581L
g3
sL1582L
g1
sL1584L
g3
sL1586L
g2
sL1587L
g2
sL1588L
g2
sL1591L
g2
sL1592L
g1
sL1593L
g3
sL1594L
g3
sL1595L
g2
sL1596L
g1
sL1597L
g1
sL1598L
g2
sL1599L
g2
sL1600L
g1
sL1601L
g3
sL1602L
g2
sL1603L
g1
sL1604L
g1
sL1605L
g1
sL1607L
g2
sL1608L
g1
sL1609L
g2
sL1611L
g2
sL1612L
g1
sL1614L
g1
sL33037L
g2
sL1616L
g3
sL1617L
g1
sL1618L
g2
sL1619L
g2
sL1620L
g1
sL1621L
g2
sL1622L
g2
sL1623L
g3
sL1624L
g3
sL1625L
g1
sL1627L
g2
sL1628L
g2
sL32788L
g2
sL1632L
g3
sL1633L
g2
sL1634L
g1
sL1635L
g3
sL1636L
g3
sL1637L
g2
sL1638L
g3
sL1639L
g3
sL1640L
g3
sL1641L
g2
sL1642L
g2
sL1643L
g1
sL1644L
g2
sL1645L
g2
sL1647L
g1
sL33043L
g2
sL1652L
g1
sL1653L
g2
sL1654L
g3
sL1655L
g3
sL1657L
g3
sL1658L
g3
sL1659L
g3
sL1660L
g3
sL1661L
g2
sL1663L
g2
sL1666L
g3
sL1667L
g2
sL1668L
g1
sL1669L
g2
sL1670L
g3
sL1671L
g3
sL1672L
g2
sL1673L
g3
sL1674L
g1
sL1675L
g3
sL1677L
g1
sL1679L
g2
sL1680L
g1
sL1681L
g1
sL1682L
g3
sL1683L
g2
sL1684L
g3
sL1687L
g3
sL1691L
g3
sL1693L
g3
sL1694L
g3
sL1695L
g1
sL1696L
g3
sL1697L
g1
sL1698L
g2
sL1700L
g3
sL1701L
g1
sL1702L
g1
sL1703L
g3
sL1704L
g1
sL1705L
g1
sL1706L
g3
sL1707L
g2
sL1708L
g4
sL1709L
g2
sL1711L
g2
sL1712L
g2
sL1713L
g1
sL1714L
g1
sL1715L
g3
sL1716L
g3
sL1717L
g2
sL1718L
g3
sL1719L
g2
sL1720L
g2
sL1721L
g2
sL1723L
g1
sL1724L
g2
sL1725L
g2
sL1726L
g3
sL33056L
g3
sL1730L
g3
sL1731L
g3
sL1732L
g1
sL1735L
g2
sL1736L
g2
sL1737L
g1
sL1739L
g2
sL1740L
g3
sL33058L
g1
sL1742L
g3
sL1743L
g2
sL1744L
g3
sL1745L
g3
sL1746L
g2
sL1747L
g3
sL1748L
g1
sL1749L
g4
sL1750L
g2
sL1751L
g3
sL1752L
g3
sL1753L
g3
sL1754L
g1
sL1756L
g2
sL1757L
g3
sL1759L
g1
sL1760L
g3
sL1761L
g2
sL1763L
g3
sL1764L
g3
sL1765L
g3
sL1766L
g3
sL1767L
g3
sL1769L
g1
sL1770L
g3
sL1771L
g3
sL1772L
g3
sL1773L
g1
sL1774L
g3
sL1776L
g1
sL1777L
g1
sL1778L
g3
sL1782L
g4
sL1783L
g3
sL1784L
g1
sL1785L
g3
sL1786L
g2
sL1787L
g1
sL1788L
g3
sL1789L
g2
sL1791L
g2
sL1792L
g3
sL1794L
g3
sL1795L
g3
sL1797L
g3
sL1799L
g1
sL1800L
g3
sL1802L
g2
sL1803L
g3
sL1804L
g1
sL1805L
g3
sL1806L
g2
sL1807L
g1
sL1809L
g2
sL1810L
g3
sL1811L
g1
sL1812L
g3
sL1814L
g2
sL1816L
g1
sL1817L
g3
sL1818L
g3
sL1819L
g2
sL1820L
g1
sL1822L
g2
sL1823L
g3
sL1824L
g2
sL1826L
g1
sL1827L
g1
sL1828L
g1
sL1829L
g1
sL1831L
g2
sL1832L
g1
sL1833L
g1
sL1835L
g3
sL1836L
g1
sL1837L
g3
sL1838L
g2
sL1839L
g3
sL1841L
g2
sL1842L
g3
sL33075L
g2
sL1845L
g1
sL1846L
g2
sL1847L
g2
sL1848L
g3
sL1849L
g3
sL1850L
g3
sL1851L
g3
sL1852L
g1
sL1855L
g2
sL1856L
g1
sL1857L
g3
sL1858L
g3
sL1859L
g1
sL1860L
g3
sL1861L
g1
sL1862L
g3
sL1863L
g3
sL1864L
g2
sL1865L
g3
sL1866L
g1
sL1867L
g1
sL1868L
g2
sL1870L
g3
sL1871L
g3
sL1872L
g1
sL1873L
g2
sL1874L
g3
sL1875L
g1
sL1876L
g2
sL1877L
g1
sL1878L
g1
sL1879L
g3
sL1880L
g3
sL1881L
g2
sL1882L
g1
sL1883L
g4
sL1884L
g4
sL1885L
g1
sL1886L
g1
sL1888L
g2
sL1889L
g3
sL1890L
g2
sL1891L
g3
sL1892L
g3
sL1894L
g2
sL1896L
g1
sL1897L
g2
sL1898L
g1
sL1899L
g3
sL1901L
g3
sL1902L
g1
sL1903L
g3
sL1904L
g1
sL1905L
g1
sL1906L
g3
sL1907L
g1
sL1908L
g2
sL1910L
g1
sL1911L
g2
sL1912L
g3
sL1913L
g3
sL1914L
g1
sL1915L
g3
sL1916L
g1
sL1918L
g2
sL1920L
g2
sL1921L
g1
sL1922L
g2
sL1923L
g1
sL1924L
g1
sL1925L
g3
sL1926L
g2
sL1927L
g2
sL1928L
g3
sL1929L
g3
sL1930L
g1
sL1931L
g3
sL1933L
g3
sL1935L
g1
sL1936L
g1
sL1937L
g2
sL1938L
g2
sL1939L
g3
sL1940L
g2
sL1941L
g3
sL1942L
g3
sL1943L
g3
sL1944L
g1
sL1945L
g2
sL1946L
g3
sL1947L
g3
sL1948L
g3
sL1949L
g1
sL1950L
g3
sL1951L
g1
sL1952L
g1
sL1953L
g3
sL1954L
g3
sL1955L
g1
sL34724L
g2
sL1957L
g1
sL1958L
g2
sL1959L
g3
sL34728L
g1
sL1961L
g3
sL1962L
g3
sL1963L
g3
sL1964L
g3
sL1965L
g3
sL1967L
g2
sL1968L
g2
sL1969L
g2
sL1970L
g2
sL1971L
g1
sL1972L
g2
sL1973L
g3
sL1974L
g1
sL33097L
g2
sL1976L
g1
sL1978L
g3
sL1979L
g4
sL1980L
g1
sL1981L
g2
sL1982L
g2
sL1983L
g3
sL1984L
g2
sL1985L
g2
sL1986L
g3
sL1987L
g2
sL1988L
g3
sL1989L
g2
sL1990L
g3
sL1991L
g2
sL1992L
g2
sL33100L
g2
sL34762L
g3
sL1995L
g2
sL1996L
g3
sL1997L
g2
sL1998L
g2
sL1999L
g2
sL2000L
g1
sL2001L
g1
sL2002L
g1
sL2003L
g3
sL2004L
g1
sL2005L
g3
sL2006L
g1
sL2007L
g1
sL2008L
g1
sL2009L
g3
sL2010L
g1
sL2011L
g1
sL2012L
g3
sL2013L
g3
sL2014L
g1
sL2015L
g3
sL2016L
g3
sL2017L
g1
sL2018L
g2
sL2019L
g3
sL2020L
g3
sL2021L
g3
sL2022L
g3
sL2023L
g3
sL2024L
g3
sL2025L
g3
sL2026L
g3
sL2027L
g3
sL2028L
g3
sL2029L
g3
sL2030L
g2
sL2031L
g2
sL2032L
g1
sL34801L
g3
sL2034L
g3
sL2035L
g2
sL2036L
g1
sL2037L
g4
sL2038L
g1
sL34807L
g2
sL2040L
g1
sL2041L
g4
sL2042L
g3
sL2043L
g4
sL2044L
g3
sL34813L
g2
sL2047L
g1
sL2048L
g1
sL2049L
g3
sL2050L
g3
sL34819L
g1
sL2052L
g3
sL2053L
g1
sL2054L
g3
sL2055L
g2
sL2056L
g3
sL2057L
g2
sL2058L
g1
sL2059L
g1
sL2060L
g3
sL2061L
g3
sL2062L
g4
sL2063L
g3
sL2064L
g2
sL2065L
g3
sL2066L
g1
sL2067L
g1
sL2068L
g1
sL2069L
g3
sL2070L
g3
sL2071L
g2
sL2072L
g1
sL2074L
g1
sL2075L
g2
sL2076L
g3
sL2077L
g3
sL2078L
g3
sL2079L
g3
sL2080L
g3
sL2081L
g3
sL2082L
g3
sL2083L
g3
sL2084L
g3
sL2085L
g3
sL2086L
g1
sL34855L
g2
sL2088L
g1
sL2089L
g1
sL2090L
g2
sL2091L
g4
sL2092L
g2
sL2093L
g3
sL2094L
g2
sL2095L
g2
sL2096L
g4
sL2097L
g1
sL2098L
g1
sL2099L
g3
sL2100L
g1
sL2101L
g1
sL2102L
g3
sL2103L
g3
sL2104L
g1
sL2105L
g3
sL2106L
g2
sL2107L
g3
sL2108L
g3
sL2109L
g1
sL2110L
g2
sL2111L
g3
sL2112L
g1
sL2113L
g2
sL34882L
g3
sL2115L
g3
sL2117L
g2
sL2118L
g3
sL2119L
g3
sL2120L
g4
sL2121L
g3
sL2122L
g1
sL34891L
g3
sL2124L
g2
sL2125L
g4
sL2126L
g4
sL2127L
g3
sL2128L
g2
sL2129L
g3
sL2130L
g3
sL2131L
g3
sL2132L
g1
sL2133L
g3
sL2134L
g3
sL2135L
g2
sL2136L
g1
sL2137L
g1
sL2138L
g3
sL2139L
g2
sL2140L
g3
sL2141L
g1
sL2142L
g1
sL2143L
g3
sL2144L
g2
sL2145L
g2
sL2146L
g2
sL2147L
g3
sL2148L
g2
sL2149L
g1
sL2150L
g1
sL2151L
g1
sL2152L
g1
sL2153L
g2
sL2154L
g1
sL2155L
g4
sL2156L
g2
sL2157L
g1
sL34926L
g3
sL2159L
g3
sL2160L
g2
sL2161L
g3
sL2162L
g3
sL2163L
g1
sL2164L
g2
sL2165L
g1
sL2166L
g2
sL2167L
g2
sL2168L
g3
sL2169L
g1
sL2170L
g1
sL2171L
g1
sL2172L
g2
sL2173L
g2
sL2174L
g3
sL2175L
g2
sL2176L
g3
sL2177L
g3
sL2178L
g1
sL2179L
g3
sL2180L
g1
sL2181L
g3
sL2182L
g2
sL2183L
g2
sL2184L
g1
sL33132L
g2
sL2186L
g2
sL2187L
g3
sL2188L
g1
sL2189L
g3
sL2190L
g3
sL2191L
g2
sL2192L
g3
sL2193L
g3
sL34962L
g2
sL2195L
g2
sL2196L
g1
sL2197L
g1
sL2198L
g2
sL2199L
g2
sL2200L
g1
sL2201L
g3
sL2202L
g1
sL2203L
g1
sL2204L
g3
sL2205L
g3
sL2206L
g2
sL2207L
g3
sL2208L
g3
sL2209L
g3
sL2210L
g2
sL2211L
g2
sL2212L
g1
sL2213L
g3
sL2214L
g3
sL2215L
g2
sL2217L
g3
sL2218L
g3
sL2219L
g3
sL2220L
g3
sL2221L
g3
sL2222L
g2
sL2223L
g1
sL2224L
g3
sL2225L
g3
sL2226L
g1
sL33139L
g3
sL2228L
g2
sL2229L
g2
sL2230L
g3
sL34999L
g3
sL35000L
g3
sL2233L
g2
sL2234L
g2
sL2235L
g3
sL2236L
g2
sL2237L
g3
sL2238L
g3
sL2239L
g4
sL2240L
g1
sL2241L
g3
sL2242L
g3
sL2243L
g3
sL2244L
g2
sL2245L
g3
sL2246L
g3
sL2247L
g3
sL35016L
g3
sL2249L
g3
sL2250L
g1
sL2251L
g2
sL2252L
g3
sL2253L
g3
sL2254L
g3
sL2255L
g1
sL2256L
g3
sL2257L
g4
sL2258L
g4
sL2259L
g1
sL2260L
g2
sL2261L
g3
sL2262L
g2
sL2263L
g2
sL2264L
g3
sL2265L
g3
sL2266L
g3
sL2267L
g2
sL2268L
g3
sL2269L
g3
sL2270L
g2
sL2271L
g1
sL2272L
g2
sL2273L
g3
sL2274L
g2
sL2275L
g3
sL2276L
g2
sL2277L
g2
sL2278L
g3
sL2279L
g2
sL2280L
g2
sL2281L
g2
sL2282L
g1
sL2283L
g3
sL2284L
g2
sL2285L
g4
sL2286L
g3
sL2287L
g3
sL2288L
g1
sL2289L
g3
sL2290L
g2
sL2291L
g3
sL2292L
g2
sL2293L
g2
sL2294L
g3
sL2295L
g3
sL2296L
g2
sL35065L
g2
sL2298L
g2
sL2299L
g2
sL35068L
g3
sL2301L
g2
sL2302L
g2
sL2303L
g3
sL2304L
g1
sL33152L
g3
sL2306L
g2
sL2307L
g2
sL2308L
g2
sL2309L
g2
sL2310L
g2
sL2311L
g2
sL2312L
g1
sL2313L
g1
sL2314L
g1
sL2315L
g2
sL2316L
g2
sL2317L
g2
sL2318L
g1
sL2319L
g3
sL2320L
g3
sL2321L
g2
sL2322L
g2
sL2323L
g2
sL2324L
g2
sL2325L
g4
sL2326L
g1
sL2327L
g3
sL2328L
g3
sL2329L
g3
sL2330L
g1
sL35099L
g3
sL2332L
g3
sL2333L
g3
sL2334L
g2
sL2335L
g2
sL35104L
g3
sL2337L
g2
sL2338L
g3
sL2339L
g1
sL2340L
g3
sL2341L
g3
sL2342L
g3
sL2343L
g3
sL2345L
g1
sL2346L
g2
sL2347L
g3
sL2348L
g2
sL2349L
g2
sL2350L
g2
sL32812L
g3
sL2354L
g2
sL2355L
g2
sL2356L
g2
sL2357L
g3
sL2358L
g3
sL2359L
g1
sL2360L
g3
sL35129L
g1
sL2362L
g3
sL2363L
g3
sL2364L
g3
sL2365L
g2
sL2366L
g3
sL2367L
g3
sL2368L
g3
sL2369L
g3
sL2370L
g3
sL2371L
g1
sL2372L
g3
sL2373L
g2
sL2374L
g1
sL2375L
g1
sL2376L
g1
sL2377L
g2
sL2378L
g2
sL2379L
g1
sL2380L
g2
sL2381L
g1
sL2382L
g3
sL2383L
g3
sL2384L
g2
sL2385L
g3
sL2387L
g1
sL2388L
g1
sL2389L
g2
sL2390L
g2
sL35159L
g2
sL2392L
g2
sL2393L
g3
sL2394L
g3
sL2395L
g2
sL2396L
g2
sL2397L
g2
sL35166L
g2
sL35167L
g2
sL2400L
g2
sL33168L
g3
sL2402L
g4
sL2403L
g2
sL2405L
g2
sL2406L
g2
sL2407L
g2
sL2408L
g2
sL2409L
g2
sL2410L
g3
sL2411L
g3
sL35180L
g1
sL2413L
g3
sL2414L
g2
sL2415L
g2
sL35184L
g3
sL2417L
g2
sL2418L
g3
sL2419L
g2
sL2420L
g3
sL2421L
g2
sL35190L
g1
sL35191L
g4
sL2424L
g2
sL2425L
g2
sL2426L
g2
sL35195L
g4
sL2428L
g2
sL2429L
g2
sL35198L
g3
sL2431L
g2
sL2432L
g2
sL2433L
g1
sL2434L
g2
sL35203L
g3
sL2436L
g2
sL2437L
g3
sL2438L
g3
sL2439L
g3
sL2440L
g2
sL2441L
g3
sL2442L
g2
sL33175L
g3
sL35212L
g2
sL2445L
g3
sL2446L
g3
sL2447L
g3
sL2448L
g2
sL2449L
g3
sL2450L
g2
sL2451L
g2
sL2452L
g3
sL2453L
g2
sL2454L
g1
sL2455L
g2
sL2456L
g1
sL2457L
g2
sL2458L
g3
sL2459L
g3
sL2460L
g1
sL2461L
g3
sL2462L
g3
sL2463L
g3
sL2464L
g4
sL2465L
g2
sL2466L
g3
sL2467L
g4
sL2468L
g1
sL2469L
g3
sL2470L
g2
sL2471L
g2
sL2472L
g3
sL2473L
g3
sL2475L
g3
sL2476L
g3
sL35245L
g3
sL2478L
g1
sL2479L
g2
sL2480L
g1
sL2481L
g2
sL2482L
g3
sL2483L
g2
sL2485L
g2
sL2486L
g1
sL2487L
g2
sL2488L
g3
sL2489L
g2
sL2490L
g2
sL2491L
g2
sL2493L
g2
sL2494L
g1
sL2495L
g1
sL2497L
g2
sL2498L
g3
sL2499L
g1
sL2500L
g3
sL2501L
g3
sL2502L
g2
sL33185L
g1
sL2504L
g2
sL2505L
g2
sL2506L
g4
sL2507L
g2
sL2508L
g3
sL33186L
g2
sL2512L
g2
sL2514L
g3
sL2515L
g4
sL2516L
g2
sL2517L
g2
sL2518L
g2
sL2519L
g2
sL2520L
g2
sL2521L
g2
sL2522L
g2
sL2524L
g3
sL35293L
g2
sL2526L
g2
sL2527L
g2
sL2528L
g3
sL2529L
g2
sL2530L
g3
sL2531L
g2
sL2532L
g3
sL2533L
g2
sL2534L
g2
sL2536L
g2
sL2537L
g2
sL2538L
g3
sL2539L
g3
sL2540L
g2
sL2543L
g3
sL2544L
g2
sL2545L
g2
sL2546L
g2
sL2547L
g3
sL2549L
g3
sL2550L
g3
sL33193L
g3
sL2552L
g3
sL2553L
g2
sL2554L
g1
sL2555L
g4
sL2556L
g2
sL2557L
g3
sL2558L
g4
sL2559L
g1
sL2560L
g3
sL2561L
g3
sL2562L
g3
sL2563L
g2
sL2566L
g3
sL2567L
g3
sL2568L
g1
sL33196L
g4
sL2570L
g2
sL2571L
g2
sL2572L
g3
sL2573L
g2
sL2575L
g2
sL2576L
g3
sL2577L
g2
sL2579L
g3
sL2580L
g3
sL33198L
g2
sL2583L
g2
sL2584L
g2
sL2585L
g3
sL2587L
g4
sL2589L
g3
sL2590L
g2
sL2591L
g2
sL2592L
g2
sL2593L
g3
sL2594L
g2
sL2595L
g2
sL2596L
g2
sL2598L
g2
sL2599L
g3
sL2600L
g3
sL2601L
g2
sL2602L
g3
sL2603L
g2
sL2604L
g3
sL2605L
g3
sL2606L
g2
sL2607L
g4
sL2608L
g2
sL2609L
g3
sL2610L
g2
sL2611L
g3
sL2612L
g2
sL2613L
g3
sL2614L
g2
sL2615L
g2
sL2616L
g2
sL2617L
g3
sL2618L
g2
sL2619L
g2
sL2620L
g2
sL2621L
g2
sL2622L
g1
sL2623L
g2
sL2624L
g2
sL2625L
g3
sL2626L
g3
sL2627L
g4
sL2628L
g1
sL2629L
g3
sL2630L
g1
sL2631L
g2
sL2632L
g2
sL2634L
g3
sL2635L
g3
sL2636L
g3
sL2637L
g2
sL2638L
g2
sL2639L
g3
sL2640L
g2
sL2642L
g3
sL2643L
g2
sL2645L
g2
sL2646L
g3
sL2647L
g3
sL2648L
g2
sL2649L
g2
sL2650L
g2
sL2651L
g2
sL2652L
g2
sL2653L
g3
sL2654L
g1
sL2655L
g3
sL2656L
g2
sL2657L
g3
sL2658L
g2
sL2659L
g2
sL2660L
g3
sL2661L
g2
sL2662L
g2
sL2663L
g2
sL2664L
g2
sL2665L
g2
sL2666L
g2
sL2667L
g3
sL2668L
g1
sL2669L
g3
sL2670L
g2
sL2671L
g3
sL2672L
g3
sL2674L
g2
sL2677L
g2
sL2678L
g2
sL2680L
g3
sL2681L
g4
sL2682L
g4
sL2683L
g1
sL2684L
g3
sL2685L
g3
sL2686L
g1
sL2687L
g4
sL2688L
g2
sL33216L
g2
sL2690L
g2
sL2691L
g2
sL2692L
g3
sL2693L
g2
sL2694L
g3
sL33217L
g1
sL2696L
g3
sL2697L
g2
sL2700L
g3
sL2701L
g3
sL2702L
g2
sL2703L
g3
sL2704L
g3
sL2705L
g3
sL2706L
g2
sL2707L
g3
sL2708L
g2
sL2709L
g3
sL2711L
g2
sL2712L
g3
sL2713L
g1
sL2714L
g2
sL2715L
g2
sL2716L
g2
sL2717L
g2
sL2718L
g2
sL2719L
g1
sL2720L
g2
sL2721L
g3
sL2722L
g2
sL2723L
g4
sL2724L
g3
sL2725L
g2
sL2726L
g2
sL2727L
g2
sL2728L
g3
sL2729L
g2
sL2730L
g2
sL2731L
g2
sL2732L
g2
sL2733L
g1
sL2734L
g2
sL2735L
g3
sL2736L
g3
sL33224L
g2
sL2738L
g1
sL2739L
g2
sL2740L
g2
sL2742L
g2
sL2743L
g3
sL2744L
g3
sL2745L
g3
sL2746L
g2
sL2747L
g3
sL2748L
g3
sL2749L
g2
sL2750L
g1
sL2751L
g3
sL2752L
g3
sL2753L
g2
sL2754L
g2
sL2755L
g2
sL2757L
g1
sL2758L
g2
sL2759L
g3
sL2760L
g3
sL2761L
g3
sL2764L
g2
sL2765L
g2
sL2766L
g3
sL2767L
g3
sL2769L
g3
sL2770L
g1
sL2771L
g2
sL2772L
g3
sL2773L
g2
sL2774L
g3
sL2775L
g2
sL2776L
g2
sL2777L
g3
sL2778L
g2
sL33231L
g2
sL2780L
g3
sL2781L
g2
sL2783L
g3
sL2784L
g3
sL2785L
g3
sL2786L
g2
sL2787L
g3
sL2788L
g3
sL2789L
g3
sL2790L
g3
sL2791L
g3
sL2792L
g2
sL2793L
g3
sL2795L
g1
sL2796L
g3
sL2797L
g3
sL2799L
g2
sL2800L
g2
sL2801L
g3
sL2802L
g3
sL2804L
g2
sL2805L
g1
sL2807L
g3
sL33236L
g3
sL2810L
g2
sL2812L
g2
sL2813L
g3
sL2814L
g3
sL2815L
g1
sL2817L
g3
sL2818L
g3
sL2821L
g2
sL2822L
g2
sL2823L
g2
sL2824L
g3
sL2827L
g3
sL2828L
g3
sL2829L
g3
sL2830L
g2
sL2831L
g3
sL2832L
g2
sL33240L
g3
sL2834L
g2
sL2836L
g3
sL2837L
g1
sL2838L
g3
sL2840L
g2
sL2841L
g1
sL2842L
g2
sL2843L
g3
sL2845L
g3
sL2846L
g2
sL2847L
g2
sL2848L
g1
sL2849L
g2
sL2850L
g3
sL2851L
g3
sL2852L
g1
sL2853L
g3
sL2854L
g2
sL2855L
g2
sL2856L
g3
sL2857L
g2
sL2858L
g2
sL2859L
g3
sL2860L
g3
sL2861L
g3
sL2862L
g2
sL2863L
g2
sL2864L
g3
sL2865L
g3
sL2866L
g3
sL2867L
g3
sL2869L
g3
sL2870L
g2
sL2871L
g2
sL2872L
g3
sL2873L
g3
sL2875L
g3
sL2876L
g2
sL2877L
g1
sL2880L
g3
sL2881L
g2
sL2882L
g2
sL2883L
g2
sL2884L
g3
sL2885L
g2
sL33249L
g3
sL2888L
g3
sL2889L
g2
sL2890L
g3
sL2891L
g2
sL2892L
g2
sL2893L
g3
sL2895L
g3
sL2896L
g2
sL2897L
g3
sL2898L
g2
sL2899L
g3
sL2900L
g3
sL2903L
g2
sL2904L
g2
sL2905L
g2
sL2909L
g3
sL2910L
g2
sL2914L
g1
sL2915L
g2
sL2916L
g2
sL2917L
g3
sL2918L
g2
sL2920L
g3
sL2921L
g3
sL2922L
g3
sL2924L
g3
sL2925L
g2
sL2926L
g3
sL2927L
g1
sL2928L
g1
sL2929L
g2
sL2930L
g2
sL2932L
g2
sL2933L
g3
sL2935L
g1
sL2936L
g1
sL2937L
g2
sL2939L
g2
sL2940L
g3
sL2941L
g1
sL2942L
g2
sL2943L
g3
sL2944L
g3
sL2946L
g2
sL2947L
g2
sL2951L
g1
sL2952L
g3
sL2953L
g3
sL2954L
g1
sL2955L
g2
sL2958L
g2
sL2959L
g3
sL2960L
g2
sL2961L
g3
sL2963L
g2
sL2965L
g2
sL2966L
g3
sL2967L
g3
sL2968L
g3
sL2969L
g3
sL2970L
g1
sL495L
g3
sL2974L
g3
sL2975L
g3
sL2976L
g2
sL2977L
g3
sL2979L
g3
sL2980L
g3
sL2981L
g3
sL2982L
g2
sL2983L
g2
sL2984L
g1
sL2985L
g3
sL2987L
g3
sL2989L
g2
sL2992L
g3
sL2993L
g2
sL2994L
g4
sL33267L
g3
sL2997L
g3
sL2998L
g3
sL3000L
g3
sL3001L
g1
sL3002L
g2
sL3003L
g2
sL3004L
g2
sL3005L
g2
sL3006L
g3
sL3007L
g3
sL3008L
g2
sL3010L
g2
sL3011L
g3
sL3012L
g2
sL3013L
g3
sL3015L
g4
sL3016L
g3
sL3017L
g4
sL3018L
g2
sL3019L
g3
sL3020L
g2
sL3021L
g2
sL3022L
g1
sL3023L
g1
sL3024L
g3
sL3025L
g3
sL3026L
g3
sL3027L
g2
sL3028L
g2
sL3029L
g2
sL3030L
g2
sL3031L
g3
sL3032L
g3
sL3033L
g2
sL3034L
g3
sL3035L
g2
sL3036L
g2
sL3037L
g4
sL3038L
g2
sL3039L
g2
sL3041L
g3
sL3042L
g3
sL3043L
g2
sL3044L
g2
sL3045L
g3
sL3047L
g2
sL3048L
g3
sL3049L
g1
sL3050L
g3
sL3052L
g2
sL3054L
g1
sL3055L
g3
sL3056L
g2
sL3057L
g2
sL3060L
g3
sL3061L
g4
sL3062L
g2
sL3063L
g3
sL3064L
g3
sL3065L
g3
sL3066L
g3
sL3067L
g3
sL3068L
g2
sL3069L
g2
sL3070L
g2
sL3071L
g2
sL3072L
g2
sL3073L
g2
sL3076L
g3
sL3077L
g3
sL3078L
g3
sL3079L
g2
sL3080L
g2
sL3081L
g3
sL3082L
g3
sL3083L
g3
sL3084L
g2
sL33282L
g3
sL3086L
g1
sL3090L
g3
sL3091L
g3
sL3092L
g2
sL3094L
g4
sL3095L
g3
sL3097L
g2
sL3098L
g2
sL3099L
g2
sL3100L
g2
sL3101L
g3
sL3102L
g2
sL3103L
g2
sL3104L
g2
sL3105L
g1
sL3106L
g2
sL3107L
g2
sL3108L
g2
sL3109L
g3
sL3111L
g1
sL3112L
g2
sL3113L
g2
sL3114L
g3
sL3115L
g3
sL3116L
g3
sL3117L
g2
sL3118L
g2
sL3119L
g2
sL3120L
g2
sL3121L
g2
sL3122L
g2
sL3123L
g3
sL3124L
g1
sL3125L
g3
sL3126L
g1
sL33289L
g1
sL3128L
g2
sL3129L
g2
sL3130L
g2
sL3131L
g2
sL3132L
g3
sL3134L
g3
sL3135L
g2
sL3137L
g4
sL3138L
g2
sL3139L
g2
sL3140L
g3
sL3142L
g2
sL3143L
g4
sL3144L
g3
sL3145L
g2
sL3146L
g2
sL3147L
g2
sL3148L
g2
sL3149L
g1
sL3150L
g2
sL3151L
g2
sL3152L
g4
sL3153L
g3
sL3154L
g2
sL3155L
g3
sL3156L
g4
sL33294L
g3
sL3158L
g3
sL3160L
g2
sL3161L
g3
sL3162L
g2
sL33295L
g2
sL3164L
g1
sL3165L
g4
sL3166L
g4
sL3167L
g2
sL3168L
g3
sL3169L
g2
sL3170L
g2
sL3172L
g3
sL3173L
g2
sL3174L
g3
sL3175L
g3
sL3177L
g3
sL3178L
g3
sL3179L
g3
sL3181L
g2
sL3182L
g2
sL3184L
g3
sL3185L
g3
sL3187L
g3
sL3188L
g3
sL3189L
g2
sL3190L
g2
sL3191L
g3
sL3192L
g2
sL3193L
g3
sL3195L
g2
sL3196L
g3
sL3197L
g1
sL3198L
g2
sL3199L
g2
sL3200L
g2
sL3201L
g2
sL3202L
g2
sL3203L
g2
sL3204L
g3
sL3205L
g1
sL3206L
g2
sL3207L
g3
sL3208L
g2
sL3209L
g2
sL3210L
g2
sL3211L
g1
sL3212L
g3
sL3213L
g2
sL3214L
g3
sL3215L
g1
sL3216L
g2
sL3217L
g2
sL3218L
g2
sL3219L
g2
sL3220L
g2
sL3221L
g1
sL3222L
g3
sL3223L
g3
sL3224L
g3
sL3225L
g3
sL3226L
g1
sL3227L
g1
sL3228L
g2
sL3229L
g2
sL3230L
g1
sL3231L
g2
sL3232L
g3
sL3233L
g4
sL3234L
g2
sL3235L
g2
sL3236L
g3
sL3237L
g1
sL3238L
g2
sL3239L
g1
sL3240L
g1
sL3241L
g3
sL3242L
g2
sL3243L
g2
sL3244L
g3
sL3245L
g2
sL3246L
g2
sL3247L
g3
sL3248L
g2
sL3249L
g2
sL3250L
g1
sL3251L
g3
sL3252L
g3
sL3253L
g3
sL3254L
g3
sL3255L
g3
sL3256L
g3
sL3257L
g1
sL3258L
g2
sL3259L
g2
sL3260L
g3
sL3261L
g2
sL3262L
g2
sL3263L
g2
sL3264L
g2
sL3265L
g2
sL3266L
g1
sL3267L
g1
sL3268L
g3
sL3269L
g2
sL3270L
g1
sL3271L
g2
sL3272L
g1
sL3273L
g1
sL3274L
g2
sL3275L
g2
sL3276L
g2
sL3277L
g2
sL3278L
g4
sL3279L
g2
sL3280L
g2
sL3281L
g1
sL3282L
g2
sL3283L
g3
sL3284L
g3
sL3285L
g3
sL3286L
g1
sL3287L
g3
sL3288L
g3
sL3289L
g4
sL3290L
g1
sL3291L
g2
sL3292L
g1
sL3293L
g1
sL3294L
g2
sL3295L
g1
sL3296L
g3
sL3297L
g1
sL3298L
g2
sL3299L
g2
sL3300L
g3
sL3301L
g2
sL3302L
g2
sL3303L
g3
sL3304L
g3
sL3305L
g2
sL3306L
g3
sL3307L
g2
sL3308L
g3
sL3309L
g3
sL3310L
g2
sL3311L
g2
sL3312L
g3
sL3313L
g3
sL3314L
g2
sL3315L
g3
sL3316L
g3
sL3317L
g2
sL3318L
g2
sL3319L
g2
sL3320L
g3
sL3321L
g3
sL3322L
g2
sL3323L
g2
sL3324L
g3
sL3325L
g3
sL3326L
g3
sL3327L
g4
sL3328L
g2
sL3329L
g2
sL3330L
g1
sL3331L
g2
sL3332L
g2
sL3333L
g2
sL3334L
g2
sL3335L
g4
sL3336L
g3
sL3337L
g3
sL3338L
g3
sL3339L
g1
sL3340L
g2
sL3341L
g2
sL3342L
g2
sL3343L
g3
sL3344L
g1
sL3345L
g1
sL3346L
g1
sL3347L
g2
sL3348L
g2
sL3349L
g3
sL3350L
g2
sL3351L
g3
sL3352L
g3
sL3353L
g2
sL3354L
g2
sL3355L
g1
sL3356L
g1
sL3358L
g2
sL3359L
g1
sL3360L
g2
sL3361L
g1
sL3362L
g3
sL3363L
g2
sL3364L
g2
sL3365L
g2
sL3366L
g1
sL3367L
g3
sL3368L
g4
sL3369L
g2
sL3370L
g2
sL3371L
g3
sL3372L
g1
sL3373L
g2
sL3374L
g2
sL3375L
g2
sL3376L
g1
sL3377L
g2
sL3378L
g2
sL3379L
g3
sL3380L
g2
sL3381L
g3
sL3382L
g2
sL3383L
g2
sL3384L
g1
sL3385L
g3
sL3386L
g2
sL3387L
g2
sL3388L
g3
sL3389L
g1
sL3390L
g2
sL3391L
g2
sL3392L
g4
sL3393L
g2
sL3394L
g2
sL3395L
g2
sL3396L
g2
sL3397L
g2
sL3398L
g1
sL3399L
g3
sL3400L
g2
sL3401L
g2
sL3402L
g3
sL3403L
g3
sL3404L
g3
sL3405L
g3
sL3406L
g1
sL3407L
g3
sL3408L
g3
sL3409L
g1
sL3410L
g1
sL3411L
g1
sL3412L
g3
sL3413L
g2
sL3414L
g4
sL3415L
g2
sL3416L
g1
sL3417L
g3
sL3418L
g2
sL3419L
g2
sL3420L
g2
sL3421L
g1
sL3422L
g2
sL3423L
g1
sL3424L
g2
sL3425L
g2
sL3426L
g3
sL3427L
g3
sL3428L
g2
sL3429L
g3
sL3430L
g2
sL3431L
g3
sL3432L
g2
sL3433L
g2
sL3434L
g2
sL3435L
g3
sL3436L
g2
sL3437L
g2
sL3438L
g1
sL3439L
g2
sL3440L
g2
sL3441L
g3
sL3442L
g1
sL3443L
g3
sL3444L
g2
sL3445L
g2
sL3446L
g3
sL3447L
g3
sL3448L
g2
sL3449L
g2
sL3450L
g2
sL3451L
g2
sL3452L
g1
sL3453L
g2
sL3454L
g2
sL3455L
g2
sL3456L
g1
sL3457L
g3
sL3458L
g2
sL3459L
g3
sL3460L
g3
sL3461L
g3
sL3462L
g3
sL3463L
g3
sL3464L
g3
sL3465L
g3
sL3466L
g2
sL3467L
g2
sL3468L
g3
sL3469L
g3
sL3470L
g3
sL3471L
g3
sL3472L
g2
sL3473L
g4
sL3474L
g3
sL3475L
g2
sL3476L
g2
sL3477L
g1
sL3478L
g3
sL3479L
g2
sL3480L
g2
sL3481L
g2
sL3482L
g2
sL3483L
g3
sL3484L
g2
sL3485L
g3
sL3486L
g2
sL3487L
g2
sL3488L
g3
sL3489L
g2
sL3490L
g3
sL3491L
g2
sL3492L
g2
sL3493L
g2
sL3494L
g1
sL3495L
g2
sL3496L
g1
sL3497L
g3
sL3498L
g2
sL3499L
g2
sL3500L
g2
sL3501L
g4
sL3502L
g3
sL3503L
g3
sL3504L
g2
sL3505L
g2
sL3506L
g2
sL3507L
g1
sL3508L
g3
sL3509L
g2
sL3510L
g3
sL3511L
g3
sL3512L
g3
sL3513L
g3
sL3514L
g2
sL3515L
g3
sL3516L
g2
sL3517L
g1
sL3518L
g2
sL3519L
g2
sL3520L
g3
sL3521L
g3
sL3522L
g3
sL3523L
g3
sL3524L
g2
sL3525L
g2
sL3526L
g2
sL3527L
g3
sL3528L
g2
sL3529L
g1
sL3530L
g4
sL3531L
g2
sL3532L
g2
sL3533L
g3
sL3534L
g3
sL3535L
g2
sL3536L
g2
sL3537L
g3
sL3538L
g2
sL3539L
g2
sL3540L
g2
sL3541L
g2
sL3542L
g2
sL3543L
g2
sL3544L
g2
sL3545L
g2
sL3546L
g3
sL3548L
g2
sL3549L
g2
sL3550L
g2
sL3551L
g3
sL3552L
g3
sL3553L
g1
sL3554L
g2
sL3555L
g1
sL3556L
g3
sL3557L
g1
sL3558L
g3
sL3559L
g3
sL3560L
g3
sL3561L
g1
sL3563L
g2
sL3564L
g2
sL3565L
g1
sL3566L
g3
sL3567L
g3
sL3568L
g2
sL3569L
g1
sL3570L
g3
sL3571L
g2
sL3572L
g2
sL3573L
g2
sL3574L
g3
sL3575L
g2
sL3576L
g2
sL3577L
g2
sL3578L
g3
sL3579L
g3
sL3580L
g2
sL3581L
g3
sL3582L
g1
sL3583L
g2
sL3584L
g2
sL3585L
g3
sL3586L
g2
sL3587L
g2
sL3588L
g3
sL3589L
g1
sL3590L
g2
sL3591L
g2
sL3592L
g1
sL3593L
g2
sL3594L
g3
sL3595L
g2
sL3596L
g2
sL3597L
g3
sL3598L
g2
sL3599L
g2
sL3600L
g3
sL3601L
g2
sL3602L
g2
sL3603L
g2
sL3604L
g2
sL3605L
g2
sL3606L
g2
sL3607L
g2
sL3608L
g3
sL3609L
g4
sL3610L
g2
sL3611L
g3
sL3612L
g1
sL3613L
g1
sL3614L
g3
sL3615L
g1
sL3616L
g2
sL3617L
g3
sL3618L
g3
sL3619L
g2
sL3620L
g2
sL3621L
g4
sL3622L
g2
sL3623L
g1
sL3624L
g2
sL3625L
g3
sL3626L
g3
sL3627L
g1
sL3629L
g2
sL3630L
g3
sL3631L
g2
sL3632L
g1
sL3633L
g3
sL3634L
g1
sL3635L
g3
sL3636L
g1
sL3637L
g3
sL3638L
g2
sL3639L
g3
sL3640L
g3
sL3641L
g2
sL3642L
g2
sL3643L
g1
sL3644L
g1
sL3645L
g1
sL3646L
g3
sL3647L
g1
sL3648L
g2
sL3649L
g3
sL3650L
g3
sL3651L
g2
sL3652L
g2
sL3653L
g2
sL3654L
g1
sL3655L
g1
sL3656L
g3
sL3657L
g3
sL3658L
g3
sL3659L
g3
sL3660L
g3
sL3661L
g3
sL3662L
g1
sL3663L
g3
sL3664L
g3
sL3665L
g2
sL3667L
g1
sL3668L
g4
sL3669L
g3
sL3670L
g3
sL3671L
g2
sL3672L
g3
sL3673L
g1
sL3674L
g2
sL3675L
g2
sL3676L
g2
sL3677L
g3
sL3678L
g1
sL3679L
g1
sL3680L
g3
sL3681L
g3
sL3682L
g1
sL3683L
g3
sL3684L
g2
sL3685L
g2
sL3686L
g2
sL3687L
g3
sL3688L
g2
sL3689L
g1
sL3690L
g2
sL3691L
g2
sL3692L
g2
sL3693L
g2
sL3694L
g2
sL3695L
g3
sL3696L
g1
sL3697L
g3
sL3698L
g2
sL3699L
g2
sL3700L
g1
sL3701L
g3
sL3702L
g3
sL3703L
g2
sL3704L
g2
sL3705L
g2
sL3706L
g2
sL3707L
g2
sL3708L
g2
sL3709L
g1
sL3710L
g1
sL3711L
g3
sL3712L
g2
sL3713L
g2
sL3714L
g2
sL3715L
g2
sL3716L
g2
sL3717L
g2
sL3718L
g2
sL3719L
g3
sL3720L
g3
sL3721L
g2
sL3722L
g3
sL3723L
g3
sL3724L
g3
sL3725L
g2
sL3726L
g1
sL3727L
g2
sL3728L
g1
sL3729L
g2
sL3730L
g3
sL3731L
g3
sL3732L
g3
sL3733L
g3
sL3734L
g2
sL3735L
g3
sL3736L
g2
sL3737L
g3
sL3738L
g3
sL3739L
g2
sL3740L
g2
sL3741L
g3
sL3742L
g2
sL3743L
g2
sL3744L
g2
sL3745L
g2
sL3746L
g3
sL3747L
g2
sL3748L
g3
sL3749L
g2
sL3750L
g3
sL3751L
g2
sL3752L
g2
sL3753L
g2
sL3754L
g3
sL3755L
g2
sL3756L
g2
sL3757L
g2
sL3758L
g1
sL3759L
g2
sL3760L
g1
sL3761L
g1
sL3762L
g1
sL3763L
g2
sL3765L
g3
sL3766L
g2
sL3767L
g2
sL3768L
g1
sL3769L
g3
sL3770L
g2
sL3771L
g3
sL3772L
g2
sL3773L
g1
sL3774L
g2
sL3775L
g2
sL3776L
g3
sL3777L
g1
sL3778L
g1
sL3779L
g3
sL3780L
g2
sL3781L
g3
sL3782L
g3
sL3783L
g1
sL3784L
g1
sL3785L
g3
sL3786L
g3
sL3787L
g3
sL3788L
g1
sL3789L
g2
sL3790L
g2
sL3791L
g2
sL3792L
g1
sL3794L
g3
sL3795L
g1
sL3796L
g2
sL3797L
g3
sL3798L
g1
sL3799L
g1
sL3800L
g3
sL3801L
g1
sL3802L
g2
sL3803L
g2
sL3804L
g2
sL3805L
g1
sL3806L
g3
sL3807L
g1
sL3808L
g2
sL3809L
g3
sL3810L
g1
sL3811L
g2
sL3812L
g2
sL3813L
g2
sL3814L
g3
sL3815L
g1
sL3816L
g2
sL3817L
g2
sL3818L
g2
sL3819L
g2
sL3820L
g1
sL3821L
g3
sL3822L
g1
sL3823L
g3
sL3824L
g2
sL3825L
g2
sL3826L
g2
sL3827L
g2
sL3828L
g2
sL3829L
g3
sL3830L
g1
sL3831L
g2
sL3832L
g3
sL3833L
g2
sL3834L
g3
sL3835L
g1
sL3836L
g3
sL3837L
g1
sL3839L
g1
sL3840L
g2
sL3841L
g1
sL3842L
g1
sL3843L
g3
sL3844L
g3
sL3845L
g2
sL3846L
g2
sL3847L
g2
sL3848L
g3
sL3849L
g2
sL3850L
g2
sL3851L
g2
sL3852L
g2
sL3853L
g3
sL3854L
g2
sL3855L
g2
sL3856L
g2
sL3857L
g2
sL3858L
g2
sL3859L
g2
sL3860L
g3
sL3861L
g4
sL3862L
g3
sL3863L
g2
sL3864L
g1
sL3865L
g2
sL3866L
g2
sL3867L
g2
sL3868L
g1
sL3869L
g2
sL3870L
g2
sL3871L
g1
sL3872L
g1
sL3873L
g3
sL3874L
g3
sL3875L
g2
sL3876L
g2
sL3877L
g3
sL3878L
g2
sL3879L
g2
sL3880L
g2
sL3881L
g3
sL3882L
g2
sL3883L
g2
sL3884L
g2
sL3885L
g2
sL3886L
g2
sL3888L
g3
sL3889L
g2
sL3890L
g2
sL3891L
g3
sL3892L
g2
sL3893L
g1
sL3894L
g4
sL3895L
g1
sL3896L
g3
sL3897L
g3
sL3898L
g3
sL3899L
g2
sL3900L
g2
sL3901L
g1
sL3902L
g1
sL3903L
g3
sL3904L
g2
sL3905L
g3
sL3906L
g3
sL3907L
g1
sL3908L
g2
sL3909L
g2
sL3910L
g2
sL3911L
g2
sL3912L
g2
sL3913L
g3
sL3914L
g2
sL3915L
g2
sL3916L
g3
sL3917L
g3
sL3918L
g2
sL3919L
g3
sL3920L
g3
sL3921L
g2
sL3922L
g2
sL3923L
g1
sL3924L
g2
sL3925L
g1
sL3926L
g2
sL3927L
g2
sL3928L
g3
sL3929L
g1
sL3930L
g2
sL3931L
g1
sL3932L
g1
sL3933L
g2
sL3934L
g2
sL3935L
g2
sL3936L
g3
sL3937L
g3
sL3938L
g3
sL3939L
g2
sL3940L
g3
sL3941L
g3
sL3943L
g2
sL3944L
g2
sL3945L
g2
sL3946L
g2
sL3947L
g3
sL3949L
g2
sL3950L
g3
sL3951L
g3
sL3952L
g3
sL3953L
g1
sL3954L
g3
sL3955L
g3
sL3956L
g2
sL3957L
g2
sL3958L
g3
sL3959L
g2
sL3960L
g2
sL3961L
g1
sL3962L
g2
sL3963L
g2
sL3964L
g2
sL3965L
g2
sL3966L
g2
sL3967L
g2
sL3968L
g2
sL3969L
g2
sL3970L
g2
sL3971L
g1
sL3972L
g3
sL3973L
g3
sL3974L
g2
sL3975L
g3
sL3976L
g3
sL3977L
g2
sL3978L
g1
sL3979L
g1
sL3980L
g2
sL3981L
g2
sL3982L
g2
sL3983L
g2
sL3984L
g2
sL3985L
g2
sL3986L
g2
sL3987L
g3
sL3988L
g2
sL3989L
g2
sL3990L
g3
sL3991L
g3
sL3992L
g3
sL3993L
g3
sL3994L
g1
sL3995L
g1
sL3996L
g3
sL3997L
g2
sL3998L
g1
sL3999L
g3
sL4000L
g3
sL4001L
g3
sL4002L
g2
sL4003L
g3
sL4005L
g2
sL4006L
g2
sL4007L
g2
sL4008L
g3
sL4009L
g2
sL4010L
g2
sL4011L
g2
sL4012L
g3
sL4013L
g2
sL4014L
g3
sL4015L
g2
sL4016L
g2
sL4017L
g3
sL4018L
g3
sL4019L
g2
sL4020L
g3
sL4021L
g2
sL4022L
g3
sL4023L
g3
sL4024L
g2
sL4025L
g2
sL4026L
g3
sL4027L
g3
sL4028L
g3
sL4029L
g2
sL4030L
g1
sL4031L
g2
sL4032L
g3
sL4033L
g3
sL4034L
g2
sL4035L
g1
sL4036L
g3
sL4037L
g1
sL4038L
g3
sL4039L
g2
sL4040L
g3
sL4041L
g2
sL4042L
g2
sL4043L
g1
sL4044L
g3
sL4045L
g2
sL4046L
g1
sL4047L
g1
sL4048L
g2
sL4049L
g2
sL4050L
g2
sL4051L
g2
sL4052L
g1
sL4053L
g2
sL4054L
g2
sL4055L
g1
sL4056L
g4
sL4057L
g3
sL4058L
g1
sL4060L
g1
sL4061L
g2
sL4062L
g3
sL4063L
g3
sL4064L
g3
sL4065L
g2
sL4066L
g1
sL4067L
g1
sL4068L
g2
sL4069L
g2
sL4070L
g2
sL4071L
g1
sL4072L
g1
sL4073L
g2
sL4074L
g1
sL4075L
g3
sL4076L
g2
sL4077L
g2
sL4078L
g2
sL4079L
g2
sL4080L
g2
sL4081L
g1
sL4082L
g3
sL4083L
g2
sL4084L
g1
sL4085L
g2
sL4086L
g2
sL4087L
g2
sL4088L
g2
sL4089L
g2
sL4090L
g2
sL4091L
g2
sL4092L
g2
sL4093L
g2
sL4094L
g3
sL4095L
g2
sL4096L
g1
sL4097L
g2
sL4098L
g2
sL4099L
g3
sL4100L
g3
sL4101L
g3
sL4102L
g3
sL4103L
g3
sL4104L
g2
sL4105L
g3
sL4106L
g3
sL4107L
g3
sL4108L
g3
sL4109L
g1
sL4110L
g2
sL4111L
g2
sL4112L
g3
sL4113L
g1
sL4114L
g3
sL4115L
g3
sL4116L
g2
sL4117L
g2
sL4118L
g2
sL4119L
g2
sL4120L
g2
sL4121L
g1
sL4122L
g2
sL4123L
g2
sL4124L
g3
sL4125L
g2
sL4126L
g2
sL4127L
g1
sL4128L
g3
sL4129L
g2
sL4130L
g1
sL4131L
g2
sL4132L
g1
sL4133L
g3
sL4134L
g1
sL4135L
g3
sL4136L
g1
sL4137L
g3
sL4138L
g1
sL4139L
g1
sL4140L
g2
sL4141L
g2
sL4142L
g2
sL4143L
g2
sL4144L
g1
sL4145L
g1
sL4146L
g3
sL4147L
g3
sL4149L
g1
sL4150L
g3
sL4151L
g4
sL4152L
g3
sL4153L
g3
sL4154L
g3
sL4155L
g3
sL4156L
g2
sL4157L
g1
sL4158L
g3
sL4159L
g3
sL4160L
g1
sL4161L
g2
sL4162L
g3
sL4163L
g2
sL4164L
g2
sL4165L
g1
sL4166L
g2
sL4167L
g1
sL4168L
g2
sL4169L
g1
sL4170L
g2
sL4171L
g2
sL4172L
g2
sL4173L
g2
sL4174L
g2
sL4175L
g1
sL4176L
g3
sL4177L
g2
sL4178L
g2
sL4179L
g2
sL4180L
g2
sL4181L
g3
sL4182L
g3
sL4183L
g2
sL4184L
g3
sL4185L
g3
sL4186L
g1
sL4187L
g2
sL4188L
g2
sL4189L
g3
sL4190L
g3
sL4191L
g2
sL4192L
g1
sL4193L
g1
sL4194L
g2
sL4195L
g3
sL4196L
g2
sL4197L
g3
sL4198L
g3
sL4199L
g2
sL4200L
g3
sL4201L
g3
sL4202L
g3
sL4203L
g2
sL4204L
g3
sL4205L
g3
sL4206L
g1
sL4207L
g2
sL4208L
g1
sL4209L
g1
sL4210L
g3
sL4211L
g2
sL4212L
g2
sL4213L
g2
sL4214L
g3
sL4215L
g3
sL4216L
g2
sL4217L
g3
sL4218L
g1
sL4219L
g3
sL4220L
g2
sL4221L
g2
sL4222L
g1
sL4223L
g2
sL4224L
g2
sL4225L
g2
sL4226L
g1
sL4227L
g2
sL4228L
g2
sL4229L
g2
sL4230L
g3
sL4231L
g3
sL4232L
g2
sL4233L
g1
sL4234L
g3
sL4235L
g3
sL4236L
g1
sL4237L
g1
sL4238L
g2
sL4239L
g1
sL4240L
g3
sL4241L
g2
sL4242L
g2
sL4243L
g2
sL4244L
g2
sL4245L
g2
sL4246L
g2
sL4247L
g2
sL4248L
g3
sL4249L
g1
sL4250L
g1
sL4251L
g2
sL4252L
g2
sL4253L
g3
sL4254L
g1
sL4255L
g2
sL4256L
g1
sL4257L
g2
sL4258L
g2
sL4259L
g3
sL4260L
g3
sL4261L
g1
sL4262L
g2
sL4263L
g4
sL4264L
g1
sL4265L
g1
sL4266L
g3
sL4267L
g1
sL4268L
g3
sL4269L
g2
sL4270L
g3
sL4271L
g2
sL4272L
g3
sL4273L
g3
sL4274L
g2
sL4276L
g2
sL4277L
g2
sL4278L
g2
sL4279L
g3
sL4280L
g2
sL4281L
g2
sL4282L
g2
sL4283L
g3
sL4284L
g2
sL4285L
g3
sL4286L
g1
sL4287L
g2
sL4288L
g2
sL4289L
g2
sL4290L
g2
sL4291L
g2
sL4292L
g2
sL4293L
g2
sL4294L
g2
sL4295L
g3
sL4296L
g2
sL4297L
g3
sL4298L
g2
sL4299L
g2
sL4300L
g3
sL4301L
g3
sL4302L
g2
sL4303L
g2
sL4304L
g3
sL4305L
g2
sL4306L
g1
sL4307L
g2
sL4308L
g3
sL4309L
g1
sL4310L
g2
sL4311L
g3
sL4312L
g3
sL4313L
g3
sL4314L
g3
sL4315L
g1
sL4316L
g2
sL4317L
g4
sL4318L
g1
sL4319L
g3
sL4320L
g2
sL4321L
g1
sL4322L
g1
sL4323L
g4
sL4324L
g2
sL4325L
g1
sL4326L
g3
sL4327L
g3
sL4328L
g1
sL4329L
g1
sL4330L
g1
sL4331L
g1
sL4332L
g1
sL4333L
g3
sL4334L
g3
sL4335L
g2
sL4336L
g2
sL4337L
g2
sL4338L
g3
sL4339L
g3
sL4340L
g2
sL4341L
g2
sL4342L
g2
sL4343L
g1
sL4344L
g2
sL4345L
g3
sL4346L
g2
sL4347L
g2
sL4348L
g3
sL4349L
g2
sL4350L
g2
sL4351L
g3
sL4352L
g3
sL4353L
g2
sL4354L
g2
sL4356L
g2
sL4357L
g1
sL4358L
g2
sL4359L
g1
sL4360L
g3
sL4361L
g2
sL4362L
g1
sL4363L
g3
sL4364L
g3
sL4365L
g3
sL4366L
g2
sL4367L
g2
sL4368L
g2
sL4369L
g3
sL4370L
g2
sL4371L
g2
sL4372L
g3
sL4373L
g2
sL4374L
g2
sL4375L
g1
sL4376L
g3
sL4377L
g3
sL4378L
g1
sL4379L
g2
sL4380L
g4
sL4381L
g2
sL4382L
g1
sL4383L
g2
sL4384L
g3
sL4385L
g2
sL4386L
g3
sL4387L
g3
sL4388L
g2
sL4389L
g2
sL4390L
g1
sL4391L
g3
sL4392L
g3
sL4393L
g3
sL4394L
g2
sL4395L
g2
sL4396L
g3
sL4397L
g1
sL4398L
g3
sL4399L
g1
sL4400L
g3
sL4401L
g2
sL4402L
g2
sL4403L
g1
sL4404L
g3
sL4405L
g3
sL4406L
g1
sL4407L
g1
sL4408L
g3
sL4409L
g2
sL4410L
g3
sL4411L
g3
sL4412L
g3
sL4413L
g2
sL4414L
g2
sL4415L
g1
sL4416L
g1
sL4417L
g2
sL4418L
g1
sL4419L
g2
sL4420L
g3
sL4421L
g2
sL4423L
g2
sL4424L
g3
sL4425L
g2
sL4426L
g2
sL4427L
g3
sL4428L
g3
sL4429L
g2
sL4430L
g3
sL4431L
g1
sL4432L
g2
sL4433L
g1
sL4434L
g3
sL4435L
g1
sL4436L
g1
sL4437L
g2
sL4438L
g3
sL4439L
g1
sL4440L
g2
sL4441L
g1
sL4442L
g1
sL4443L
g1
sL4444L
g1
sL4445L
g3
sL4446L
g2
sL4447L
g3
sL4448L
g2
sL4449L
g2
sL4450L
g2
sL4451L
g2
sL4452L
g3
sL4453L
g1
sL4454L
g2
sL4455L
g2
sL4456L
g1
sL4457L
g3
sL4458L
g3
sL4459L
g2
sL4460L
g2
sL4461L
g3
sL4462L
g3
sL4463L
g3
sL4464L
g2
sL4465L
g3
sL4466L
g2
sL4467L
g1
sL4468L
g2
sL4469L
g1
sL4470L
g2
sL4471L
g3
sL4472L
g2
sL4473L
g1
sL4474L
g2
sL4475L
g3
sL4476L
g2
sL4477L
g3
sL4478L
g1
sL4479L
g2
sL4480L
g3
sL4481L
g1
sL4482L
g3
sL4483L
g2
sL4484L
g3
sL4485L
g2
sL4486L
g2
sL4487L
g2
sL4488L
g1
sL4489L
g2
sL4490L
g3
sL4491L
g1
sL4492L
g1
sL4493L
g2
sL4494L
g1
sL4495L
g2
sL4496L
g2
sL4497L
g2
sL4498L
g2
sL4499L
g1
sL4500L
g1
sL4502L
g2
sL4503L
g2
sL4504L
g1
sL4505L
g1
sL4506L
g3
sL4507L
g3
sL4508L
g3
sL4509L
g2
sL4510L
g2
sL4511L
g2
sL4512L
g2
sL4513L
g3
sL4514L
g2
sL4515L
g3
sL4516L
g3
sL4517L
g1
sL4518L
g3
sL4519L
g3
sL4520L
g3
sL4521L
g2
sL4522L
g1
sL4523L
g2
sL4524L
g1
sL4525L
g1
sL4526L
g3
sL4527L
g3
sL4528L
g2
sL4529L
g3
sL4530L
g2
sL4531L
g2
sL4532L
g3
sL4533L
g3
sL4534L
g3
sL4535L
g1
sL4536L
g2
sL4537L
g3
sL4538L
g3
sL4539L
g1
sL4540L
g1
sL4541L
g3
sL4542L
g1
sL4543L
g2
sL4544L
g2
sL4545L
g2
sL4546L
g3
sL4547L
g1
sL4548L
g3
sL4549L
g1
sL4550L
g2
sL4551L
g1
sL4552L
g3
sL4553L
g2
sL4554L
g2
sL4555L
g1
sL4556L
g2
sL4557L
g2
sL4558L
g1
sL4559L
g3
sL4560L
g1
sL4561L
g1
sL4562L
g3
sL4563L
g1
sL4564L
g1
sL4565L
g1
sL4566L
g1
sL4567L
g3
sL4569L
g2
sL4570L
g2
sL4571L
g4
sL4572L
g2
sL4573L
g3
sL4574L
g3
sL4575L
g1
sL4576L
g2
sL4577L
g1
sL4578L
g1
sL4579L
g1
sL4580L
g2
sL4581L
g4
sL4582L
g3
sL4583L
g3
sL4584L
g3
sL4585L
g1
sL4586L
g1
sL4587L
g1
sL4588L
g3
sL4589L
g2
sL4590L
g3
sL4591L
g2
sL4592L
g1
sL4593L
g1
sL4594L
g1
sL4595L
g2
sL4596L
g2
sL4597L
g3
sL4598L
g2
sL4599L
g2
sL4600L
g1
sL4601L
g1
sL4602L
g1
sL4603L
g3
sL4604L
g2
sL4605L
g1
sL4606L
g2
sL4607L
g1
sL4608L
g2
sL4609L
g3
sL4610L
g1
sL4611L
g2
sL4612L
g1
sL4613L
g1
sL4614L
g3
sL4615L
g3
sL4616L
g1
sL4617L
g2
sL4618L
g2
sL4619L
g2
sL4620L
g2
sL4621L
g3
sL4622L
g1
sL4623L
g3
sL4624L
g3
sL4625L
g2
sL4626L
g2
sL4627L
g2
sL4628L
g2
sL4629L
g2
sL4630L
g1
sL4631L
g2
sL4632L
g1
sL4633L
g3
sL4634L
g2
sL4635L
g3
sL4636L
g1
sL4637L
g3
sL4638L
g3
sL4639L
g2
sL4640L
g1
sL4641L
g1
sL4642L
g2
sL4643L
g2
sL4644L
g2
sL4645L
g3
sL4646L
g3
sL4647L
g2
sL4648L
g3
sL4650L
g1
sL4651L
g1
sL4652L
g1
sL4653L
g1
sL4654L
g3
sL4655L
g1
sL4656L
g3
sL4657L
g1
sL4658L
g2
sL4659L
g3
sL4660L
g1
sL4661L
g3
sL4662L
g3
sL4663L
g3
sL4664L
g2
sL4665L
g2
sL4666L
g2
sL4667L
g3
sL4668L
g3
sL4669L
g3
sL4670L
g1
sL4671L
g3
sL4672L
g3
sL4673L
g2
sL4674L
g3
sL4675L
g1
sL4676L
g3
sL4677L
g3
sL4678L
g3
sL4679L
g2
sL4680L
g2
sL4681L
g1
sL4683L
g3
sL4684L
g1
sL4685L
g2
sL4686L
g2
sL4687L
g3
sL4688L
g1
sL4689L
g1
sL4690L
g1
sL4691L
g3
sL4692L
g1
sL4693L
g3
sL4694L
g1
sL4695L
g3
sL4696L
g3
sL4697L
g3
sL4698L
g3
sL4699L
g3
sL4700L
g1
sL4701L
g1
sL4702L
g1
sL4703L
g3
sL4705L
g1
sL4706L
g1
sL4707L
g1
sL4708L
g1
sL4709L
g1
sL4710L
g3
sL4711L
g1
sL4712L
g2
sL4713L
g1
sL4714L
g4
sL4715L
g2
sL4716L
g1
sL4717L
g1
sL4718L
g1
sL4719L
g3
sL4720L
g3
sL4721L
g3
sL4722L
g3
sL4723L
g2
sL4724L
g2
sL4725L
g4
sL4726L
g1
sL4727L
g3
sL4728L
g1
sL4729L
g3
sL4730L
g2
sL4731L
g3
sL4732L
g1
sL4733L
g3
sL4734L
g1
sL4735L
g1
sL4736L
g1
sL4737L
g3
sL4738L
g2
sL4739L
g2
sL4740L
g2
sL4741L
g3
sL4742L
g3
sL4743L
g2
sL4744L
g2
sL4745L
g2
sL4746L
g3
sL4747L
g2
sL4748L
g1
sL4749L
g2
sL4750L
g2
sL4751L
g2
sL4752L
g3
sL4753L
g1
sL4754L
g1
sL4755L
g3
sL4756L
g2
sL4757L
g2
sL4758L
g2
sL4759L
g3
sL4760L
g2
sL4761L
g3
sL4762L
g3
sL4763L
g2
sL4764L
g3
sL4765L
g3
sL4766L
g1
sL4767L
g3
sL4768L
g2
sL4769L
g3
sL4770L
g2
sL4771L
g2
sL4772L
g2
sL4773L
g1
sL4774L
g2
sL4775L
g2
sL4776L
g3
sL4777L
g2
sL4778L
g3
sL4779L
g4
sL4780L
g3
sL4781L
g2
sL4782L
g2
sL4783L
g2
sL4784L
g2
sL4785L
g3
sL4786L
g1
sL4787L
g3
sL4788L
g2
sL4789L
g3
sL4790L
g2
sL4791L
g2
sL4792L
g2
sL4793L
g2
sL4794L
g2
sL4795L
g2
sL4796L
g2
sL4797L
g2
sL4798L
g2
sL4799L
g2
sL4800L
g2
sL4801L
g2
sL4802L
g2
sL4803L
g2
sL4804L
g2
sL4805L
g1
sL4806L
g3
sL4807L
g2
sL4808L
g3
sL4809L
g2
sL4810L
g2
sL4811L
g3
sL4812L
g3
sL4813L
g1
sL4814L
g1
sL4815L
g3
sL4816L
g2
sL4817L
g2
sL4818L
g3
sL4819L
g3
sL4820L
g3
sL4821L
g4
sL4822L
g2
sL4823L
g2
sL4824L
g2
sL4825L
g2
sL4826L
g2
sL4827L
g1
sL4828L
g1
sL4829L
g2
sL4830L
g3
sL4831L
g2
sL4832L
g3
sL4833L
g2
sL4834L
g1
sL4835L
g2
sL4836L
g2
sL4837L
g2
sL4838L
g3
sL4839L
g3
sL4841L
g1
sL4842L
g3
sL4843L
g3
sL4844L
g4
sL4845L
g2
sL4846L
g2
sL4847L
g3
sL4848L
g3
sL4849L
g2
sL4850L
g3
sL4851L
g3
sL4852L
g3
sL4853L
g2
sL4854L
g3
sL4855L
g3
sL4856L
g1
sL4857L
g3
sL4858L
g2
sL4859L
g3
sL4860L
g2
sL4861L
g2
sL4862L
g2
sL4863L
g1
sL4864L
g3
sL4865L
g2
sL4866L
g1
sL4867L
g2
sL4868L
g3
sL4869L
g3
sL4870L
g1
sL4871L
g2
sL4872L
g2
sL4873L
g3
sL4874L
g2
sL4875L
g2
sL4876L
g2
sL4877L
g3
sL4878L
g3
sL4879L
g2
sL4880L
g2
sL4881L
g2
sL4882L
g2
sL4883L
g2
sL4884L
g1
sL4885L
g2
sL4886L
g1
sL4887L
g2
sL4888L
g4
sL4889L
g2
sL4890L
g2
sL4891L
g2
sL4892L
g3
sL4893L
g3
sL4894L
g2
sL4895L
g2
sL4896L
g3
sL4897L
g2
sL4898L
g3
sL4899L
g3
sL4900L
g2
sL4901L
g2
sL4902L
g3
sL4903L
g2
sL4904L
g2
sL4905L
g3
sL4906L
g3
sL4907L
g3
sL4908L
g3
sL4909L
g2
sL4910L
g3
sL4911L
g2
sL4912L
g1
sL4913L
g3
sL4914L
g3
sL4915L
g3
sL4916L
g3
sL4917L
g3
sL4919L
g2
sL4920L
g3
sL4921L
g3
sL4922L
g2
sL4923L
g2
sL4924L
g2
sL4925L
g2
sL4926L
g2
sL4927L
g2
sL4928L
g3
sL4930L
g2
sL4931L
g2
sL4932L
g2
sL4933L
g3
sL4934L
g3
sL4935L
g2
sL4936L
g2
sL4937L
g2
sL4938L
g2
sL4939L
g2
sL4940L
g3
sL4941L
g2
sL4942L
g2
sL4943L
g3
sL4944L
g2
sL4945L
g2
sL4946L
g1
sL4947L
g1
sL4948L
g3
sL4949L
g3
sL4950L
g3
sL4951L
g2
sL4952L
g1
sL4953L
g2
sL4954L
g3
sL4955L
g2
sL4956L
g2
sL4957L
g3
sL4958L
g3
sL4959L
g3
sL4960L
g2
sL4961L
g3
sL4962L
g3
sL4963L
g3
sL4964L
g3
sL4965L
g1
sL4966L
g2
sL4967L
g3
sL4968L
g1
sL4969L
g2
sL4970L
g3
sL4971L
g3
sL4972L
g3
sL4973L
g2
sL4974L
g2
sL4975L
g3
sL4976L
g3
sL4977L
g3
sL4978L
g2
sL4979L
g2
sL4980L
g1
sL4981L
g3
sL4982L
g2
sL4983L
g3
sL4984L
g1
sL4985L
g3
sL4986L
g3
sL4987L
g1
sL4988L
g1
sL4989L
g2
sL4990L
g3
sL4991L
g3
sL4992L
g2
sL4993L
g2
sL4994L
g2
sL4995L
g2
sL4996L
g3
sL4997L
g2
sL4998L
g2
sL4999L
g2
sL5000L
g2
sL5001L
g3
sL5002L
g2
sL5003L
g2
sL5004L
g2
sL5005L
g2
sL5006L
g2
sL5007L
g3
sL5008L
g4
sL5009L
g2
sL5010L
g2
sL5011L
g2
sL5012L
g2
sL5013L
g2
sL5014L
g1
sL5015L
g2
sL5016L
g1
sL5017L
g3
sL5018L
g2
sL5019L
g1
sL5020L
g2
sL5021L
g2
sL5022L
g1
sL5023L
g2
sL5024L
g2
sL5025L
g2
sL5026L
g3
sL5027L
g2
sL5028L
g3
sL5029L
g2
sL5030L
g3
sL5031L
g3
sL5032L
g2
sL5033L
g3
sL5034L
g1
sL5035L
g2
sL5036L
g3
sL5037L
g1
sL5038L
g2
sL5039L
g2
sL5040L
g1
sL5041L
g2
sL5042L
g2
sL5043L
g3
sL5044L
g3
sL5045L
g3
sL5046L
g2
sL5047L
g2
sL5048L
g3
sL5049L
g2
sL5050L
g3
sL5051L
g2
sL5052L
g3
sL5053L
g1
sL5054L
g2
sL5055L
g3
sL5056L
g1
sL5057L
g3
sL5058L
g2
sL5059L
g2
sL5060L
g3
sL5062L
g1
sL5063L
g2
sL5064L
g3
sL5065L
g3
sL5066L
g2
sL5067L
g2
sL5068L
g2
sL5069L
g2
sL5070L
g2
sL5071L
g2
sL5072L
g3
sL5073L
g2
sL5074L
g3
sL5075L
g2
sL5076L
g3
sL5077L
g2
sL5078L
g3
sL5079L
g3
sL5080L
g3
sL5081L
g3
sL5082L
g2
sL5083L
g2
sL5084L
g2
sL5085L
g2
sL5086L
g3
sL5087L
g2
sL5088L
g2
sL5089L
g2
sL5090L
g2
sL5091L
g2
sL5092L
g3
sL5093L
g1
sL5094L
g3
sL5095L
g3
sL5096L
g3
sL5097L
g1
sL5098L
g2
sL5099L
g2
sL5100L
g2
sL5101L
g2
sL5102L
g2
sL5103L
g3
sL5104L
g3
sL5105L
g3
sL5106L
g2
sL5107L
g2
sL5108L
g2
sL5109L
g1
sL5110L
g3
sL5111L
g2
sL5112L
g2
sL5113L
g2
sL5114L
g3
sL5115L
g2
sL5116L
g1
sL5117L
g2
sL5118L
g2
sL5119L
g3
sL5120L
g2
sL5121L
g2
sL5122L
g2
sL5123L
g2
sL5124L
g2
sL5125L
g3
sL5126L
g1
sL5127L
g3
sL5128L
g3
sL5129L
g1
sL5130L
g3
sL5131L
g2
sL5132L
g2
sL5133L
g1
sL5134L
g2
sL5135L
g3
sL5136L
g1
sL5137L
g3
sL5138L
g2
sL5139L
g2
sL5140L
g2
sL5141L
g3
sL5142L
g2
sL5143L
g3
sL5144L
g2
sL5145L
g3
sL5146L
g2
sL5147L
g2
sL5148L
g1
sL5149L
g4
sL5150L
g2
sL5151L
g2
sL5152L
g2
sL5153L
g2
sL5154L
g2
sL5155L
g3
sL5156L
g1
sL5157L
g2
sL5158L
g1
sL5159L
g2
sL5160L
g2
sL5161L
g2
sL5162L
g3
sL5163L
g2
sL5164L
g2
sL5165L
g2
sL5166L
g1
sL5167L
g2
sL5168L
g2
sL5169L
g2
sL5170L
g2
sL5171L
g2
sL5172L
g3
sL5173L
g2
sL5174L
g3
sL5175L
g2
sL5176L
g3
sL5177L
g3
sL5178L
g3
sL5179L
g2
sL5180L
g3
sL5181L
g2
sL5182L
g2
sL5183L
g3
sL5184L
g2
sL5185L
g1
sL5186L
g3
sL5187L
g2
sL5188L
g3
sL5189L
g2
sL5190L
g2
sL5191L
g1
sL5192L
g2
sL5193L
g3
sL5194L
g2
sL5195L
g1
sL5196L
g1
sL5197L
g2
sL5198L
g2
sL5199L
g2
sL5200L
g2
sL5201L
g2
sL5202L
g1
sL5203L
g2
sL5204L
g2
sL5205L
g3
sL5206L
g3
sL5207L
g3
sL5208L
g3
sL5209L
g2
sL5210L
g3
sL5211L
g2
sL5212L
g2
sL5213L
g1
sL5214L
g1
sL5215L
g3
sL5216L
g3
sL5217L
g1
sL5218L
g2
sL5219L
g3
sL5220L
g2
sL5221L
g3
sL5222L
g3
sL5223L
g3
sL5224L
g2
sL5225L
g1
sL5226L
g3
sL5227L
g1
sL5228L
g3
sL5229L
g3
sL5231L
g3
sL5232L
g2
sL5233L
g4
sL5234L
g1
sL5235L
g2
sL5236L
g3
sL5237L
g2
sL5238L
g3
sL5239L
g2
sL5240L
g2
sL5241L
g1
sL5242L
g2
sL5243L
g2
sL5244L
g3
sL5245L
g2
sL5246L
g3
sL5247L
g2
sL5248L
g3
sL5249L
g3
sL5250L
g3
sL5251L
g2
sL5252L
g2
sL5253L
g2
sL5254L
g2
sL5255L
g2
sL5256L
g2
sL5257L
g2
sL5258L
g2
sL5259L
g2
sL5260L
g3
sL5261L
g2
sL5262L
g2
sL5263L
g3
sL5264L
g2
sL5265L
g2
sL5266L
g2
sL5267L
g2
sL5268L
g2
sL5269L
g3
sL5270L
g1
sL5271L
g2
sL5272L
g3
sL5273L
g3
sL5274L
g3
sL5275L
g2
sL5276L
g2
sL5277L
g1
sL5278L
g3
sL5279L
g2
sL5280L
g1
sL5281L
g2
sL5282L
g2
sL5283L
g1
sL5284L
g3
sL5285L
g2
sL5286L
g3
sL5287L
g3
sL5288L
g3
sL5289L
g2
sL5290L
g3
sL5291L
g2
sL5292L
g2
sL5293L
g2
sL5294L
g3
sL5295L
g2
sL5296L
g3
sL5297L
g3
sL5298L
g2
sL5299L
g2
sL5300L
g2
sL5301L
g3
sL5302L
g3
sL5303L
g2
sL5304L
g3
sL5305L
g3
sL5306L
g2
sL5307L
g3
sL5308L
g3
sL5309L
g3
sL5310L
g1
sL5311L
g2
sL5312L
g2
sL5313L
g3
sL5314L
g2
sL5315L
g1
sL5316L
g3
sL33654L
g1
sL5318L
g2
sL5319L
g3
sL5320L
g2
sL5321L
g3
sL5322L
g2
sL5323L
g1
sL5324L
g3
sL5325L
g3
sL5326L
g2
sL5327L
g3
sL5328L
g3
sL5329L
g2
sL5330L
g2
sL5331L
g3
sL5332L
g3
sL5333L
g3
sL5334L
g2
sL5335L
g1
sL5336L
g2
sL5337L
g3
sL5338L
g2
sL5339L
g3
sL5340L
g2
sL5341L
g2
sL5342L
g2
sL5343L
g1
sL5344L
g2
sL5345L
g2
sL5346L
g2
sL5347L
g2
sL5348L
g2
sL5349L
g2
sL5350L
g3
sL5351L
g2
sL5352L
g1
sL5353L
g2
sL5354L
g2
sL5355L
g2
sL5356L
g1
sL5357L
g2
sL5358L
g3
sL5359L
g2
sL5360L
g3
sL5361L
g3
sL5362L
g3
sL5363L
g1
sL5364L
g3
sL5365L
g3
sL5366L
g2
sL5367L
g1
sL5368L
g1
sL5369L
g1
sL5370L
g2
sL5371L
g3
sL5372L
g3
sL5373L
g3
sL5374L
g3
sL5376L
g3
sL5377L
g3
sL5378L
g3
sL5379L
g2
sL5380L
g2
sL5381L
g3
sL5382L
g3
sL5383L
g2
sL5384L
g3
sL5385L
g2
sL5386L
g2
sL5387L
g3
sL5388L
g2
sL5389L
g2
sL5390L
g3
sL5391L
g2
sL5392L
g3
sL5393L
g2
sL5394L
g3
sL5395L
g1
sL5396L
g2
sL5397L
g3
sL5398L
g1
sL5399L
g3
sL5400L
g1
sL5401L
g2
sL5402L
g3
sL5403L
g3
sL5404L
g2
sL5405L
g2
sL5406L
g2
sL5407L
g2
sL5408L
g1
sL5409L
g2
sL5410L
g2
sL5411L
g3
sL5412L
g2
sL5413L
g3
sL5414L
g2
sL5415L
g2
sL5416L
g3
sL5417L
g2
sL5418L
g2
sL5419L
g3
sL5420L
g3
sL5421L
g2
sL5422L
g2
sL5423L
g2
sL5424L
g2
sL5426L
g3
sL5427L
g3
sL5428L
g3
sL5429L
g3
sL5430L
g3
sL5431L
g3
sL5432L
g2
sL5433L
g3
sL5435L
g2
sL5436L
g1
sL5437L
g3
sL5438L
g2
sL5439L
g2
sL5440L
g2
sL5441L
g2
sL5442L
g1
sL5443L
g2
sL5444L
g3
sL5445L
g2
sL5446L
g3
sL5447L
g3
sL5448L
g3
sL5449L
g3
sL5450L
g2
sL5451L
g3
sL5452L
g2
sL5453L
g3
sL5454L
g3
sL5455L
g3
sL5456L
g2
sL5457L
g2
sL5458L
g3
sL5459L
g1
sL5460L
g2
sL5461L
g3
sL5462L
g2
sL5463L
g1
sL5464L
g1
sL5465L
g3
sL5466L
g3
sL5467L
g3
sL5468L
g2
sL5469L
g3
sL5470L
g3
sL5471L
g2
sL5472L
g3
sL5473L
g2
sL5474L
g2
sL5475L
g1
sL5476L
g3
sL5477L
g2
sL5478L
g2
sL5479L
g3
sL5480L
g2
sL5481L
g2
sL5482L
g2
sL5483L
g2
sL5484L
g3
sL5485L
g2
sL5486L
g2
sL5487L
g2
sL5488L
g1
sL5489L
g1
sL5490L
g1
sL5491L
g2
sL5492L
g3
sL5493L
g3
sL5494L
g3
sL5495L
g2
sL5496L
g2
sL5497L
g2
sL5498L
g2
sL5499L
g3
sL5500L
g3
sL5501L
g2
sL5502L
g2
sL5503L
g3
sL5504L
g2
sL5505L
g3
sL5506L
g3
sL5507L
g3
sL5508L
g3
sL5509L
g4
sL5510L
g3
sL5511L
g2
sL5512L
g3
sL5513L
g2
sL5514L
g1
sL5515L
g3
sL5516L
g3
sL5517L
g2
sL5518L
g1
sL5519L
g1
sL5520L
g3
sL5521L
g3
sL5522L
g2
sL5523L
g3
sL5524L
g3
sL5525L
g2
sL5526L
g4
sL5527L
g2
sL5528L
g2
sL5529L
g3
sL5530L
g1
sL5531L
g3
sL5532L
g4
sL5533L
g2
sL5534L
g3
sL5535L
g3
sL5536L
g3
sL5537L
g3
sL5538L
g3
sL5539L
g2
sL5541L
g3
sL5542L
g2
sL5543L
g2
sL5544L
g2
sL5545L
g3
sL5546L
g3
sL5547L
g1
sL5548L
g2
sL5549L
g2
sL5550L
g2
sL5551L
g2
sL5552L
g1
sL5553L
g2
sL5554L
g1
sL5555L
g1
sL5556L
g2
sL5557L
g2
sL5558L
g2
sL5559L
g2
sL5560L
g2
sL5561L
g2
sL5562L
g2
sL5563L
g3
sL5564L
g2
sL5565L
g2
sL5566L
g3
sL5567L
g3
sL5568L
g3
sL5569L
g3
sL5570L
g3
sL5571L
g2
sL5572L
g2
sL5573L
g1
sL5574L
g1
sL5575L
g1
sL5576L
g3
sL5577L
g2
sL5578L
g1
sL5579L
g3
sL5580L
g4
sL5581L
g2
sL5582L
g3
sL5583L
g2
sL5584L
g2
sL5585L
g3
sL5586L
g2
sL5587L
g2
sL5588L
g3
sL5589L
g3
sL5590L
g2
sL5591L
g2
sL5592L
g3
sL5593L
g2
sL5594L
g1
sL5595L
g2
sL5596L
g3
sL5597L
g2
sL5598L
g3
sL5599L
g3
sL5600L
g3
sL5601L
g3
sL5602L
g2
sL5603L
g2
sL5604L
g3
sL5605L
g2
sL5606L
g2
sL5607L
g3
sL5608L
g2
sL5609L
g3
sL5610L
g2
sL5611L
g1
sL5612L
g2
sL5613L
g1
sL5614L
g1
sL5615L
g1
sL5616L
g3
sL5617L
g2
sL5618L
g2
sL5619L
g2
sL5620L
g2
sL5621L
g2
sL5622L
g2
sL5623L
g1
sL5624L
g1
sL5625L
g1
sL5626L
g2
sL5627L
g3
sL5628L
g2
sL5629L
g3
sL5630L
g3
sL5631L
g3
sL5632L
g3
sL5633L
g1
sL5634L
g3
sL5635L
g2
sL5636L
g2
sL5637L
g3
sL5639L
g2
sL5640L
g2
sL5641L
g3
sL5642L
g3
sL5643L
g2
sL5644L
g2
sL5645L
g2
sL5646L
g2
sL5647L
g2
sL5648L
g2
sL5649L
g2
sL5650L
g2
sL5651L
g2
sL5652L
g2
sL5653L
g2
sL5654L
g2
sL5655L
g2
sL5656L
g4
sL5657L
g3
sL5658L
g3
sL5659L
g1
sL5660L
g2
sL5661L
g3
sL5662L
g3
sL5663L
g1
sL5664L
g1
sL5665L
g3
sL5666L
g3
sL5667L
g2
sL5668L
g2
sL5669L
g2
sL5670L
g2
sL5671L
g3
sL5672L
g2
sL5673L
g1
sL5674L
g3
sL5675L
g3
sL5676L
g4
sL5677L
g2
sL5678L
g3
sL5679L
g3
sL5680L
g3
sL5681L
g3
sL5682L
g1
sL5683L
g3
sL5684L
g3
sL5685L
g3
sL5686L
g2
sL5687L
g3
sL5688L
g2
sL5689L
g2
sL5690L
g1
sL5691L
g2
sL5692L
g1
sL5693L
g2
sL5694L
g3
sL5695L
g3
sL5696L
g2
sL5697L
g2
sL5698L
g2
sL5699L
g2
sL5700L
g3
sL5701L
g2
sL5702L
g3
sL5703L
g1
sL5704L
g2
sL5705L
g3
sL5706L
g3
sL5707L
g2
sL5708L
g3
sL5709L
g2
sL5710L
g2
sL5711L
g2
sL5712L
g1
sL5713L
g2
sL5714L
g2
sL5715L
g2
sL5716L
g3
sL5717L
g2
sL5718L
g2
sL5719L
g1
sL5720L
g3
sL5721L
g2
sL5722L
g2
sL5723L
g2
sL5724L
g2
sL5725L
g2
sL5726L
g2
sL5727L
g2
sL5728L
g1
sL5729L
g3
sL5730L
g3
sL5731L
g2
sL5732L
g1
sL5733L
g2
sL5734L
g3
sL5735L
g3
sL5736L
g3
sL5737L
g2
sL5738L
g3
sL5739L
g2
sL5740L
g2
sL5741L
g2
sL5742L
g1
sL5743L
g2
sL5744L
g2
sL5745L
g2
sL5746L
g2
sL5747L
g2
sL5748L
g2
sL5749L
g3
sL5750L
g2
sL5751L
g4
sL5752L
g1
sL5753L
g1
sL5754L
g2
sL5755L
g3
sL5756L
g3
sL5757L
g2
sL5758L
g3
sL5759L
g2
sL5760L
g2
sL5761L
g2
sL5762L
g2
sL5763L
g2
sL5764L
g2
sL5765L
g1
sL5766L
g2
sL5767L
g1
sL5768L
g2
sL5769L
g3
sL5770L
g3
sL5771L
g4
sL5772L
g3
sL5773L
g2
sL5774L
g2
sL5775L
g3
sL5776L
g3
sL5777L
g3
sL5778L
g1
sL5779L
g1
sL5780L
g2
sL5781L
g3
sL5782L
g1
sL5783L
g2
sL5784L
g2
sL5785L
g1
sL5786L
g3
sL5787L
g2
sL5788L
g2
sL5789L
g3
sL5790L
g2
sL5791L
g3
sL5792L
g2
sL5793L
g2
sL5794L
g3
sL5795L
g2
sL5797L
g2
sL5798L
g2
sL5799L
g3
sL5800L
g3
sL5801L
g2
sL5802L
g2
sL5803L
g2
sL5804L
g1
sL5805L
g2
sL5806L
g3
sL5807L
g3
sL5808L
g2
sL5809L
g2
sL5810L
g2
sL5811L
g3
sL5812L
g3
sL5813L
g3
sL5814L
g2
sL5815L
g3
sL5817L
g2
sL5818L
g4
sL5819L
g3
sL5820L
g1
sL5821L
g2
sL5822L
g2
sL5823L
g2
sL5824L
g1
sL5825L
g2
sL5826L
g1
sL5827L
g3
sL5828L
g1
sL5829L
g1
sL5830L
g3
sL5831L
g2
sL5832L
g2
sL5833L
g2
sL5834L
g3
sL5835L
g2
sL5836L
g2
sL5837L
g2
sL5838L
g2
sL5839L
g2
sL5840L
g2
sL5841L
g2
sL5842L
g2
sL5843L
g3
sL5844L
g1
sL5845L
g2
sL5846L
g3
sL5847L
g3
sL5848L
g2
sL5849L
g2
sL5850L
g2
sL5851L
g2
sL5852L
g2
sL5853L
g3
sL5854L
g2
sL5855L
g2
sL5856L
g4
sL5857L
g3
sL5858L
g2
sL5859L
g3
sL5860L
g1
sL5861L
g3
sL5862L
g2
sL5863L
g2
sL5864L
g2
sL5865L
g1
sL5866L
g2
sL5867L
g3
sL5868L
g2
sL5869L
g3
sL5870L
g3
sL5871L
g3
sL5872L
g2
sL5873L
g2
sL5874L
g2
sL5875L
g2
sL5876L
g2
sL5877L
g3
sL5878L
g2
sL5879L
g1
sL5880L
g2
sL5881L
g2
sL5882L
g2
sL5883L
g2
sL5884L
g2
sL5885L
g2
sL5886L
g2
sL5887L
g2
sL5888L
g3
sL5889L
g1
sL5890L
g1
sL5891L
g2
sL5892L
g2
sL5893L
g2
sL5894L
g3
sL5895L
g2
sL5896L
g3
sL5897L
g2
sL5898L
g3
sL5899L
g2
sL5900L
g3
sL5901L
g2
sL5902L
g2
sL5903L
g2
sL5904L
g1
sL5905L
g1
sL5906L
g2
sL5907L
g2
sL5908L
g3
sL5909L
g2
sL5910L
g2
sL5911L
g2
sL5912L
g2
sL5913L
g3
sL5914L
g2
sL5915L
g2
sL5916L
g2
sL5917L
g2
sL5918L
g2
sL5919L
g1
sL5920L
g2
sL5921L
g3
sL5922L
g1
sL5923L
g2
sL5924L
g2
sL5925L
g2
sL5926L
g2
sL5928L
g3
sL5929L
g3
sL5930L
g3
sL5931L
g4
sL5932L
g3
sL5933L
g2
sL5934L
g2
sL5935L
g2
sL5936L
g1
sL5937L
g4
sL5938L
g3
sL5939L
g3
sL5940L
g3
sL5941L
g2
sL5942L
g3
sL5943L
g2
sL5944L
g2
sL5945L
g2
sL5946L
g2
sL5947L
g2
sL5948L
g4
sL5949L
g2
sL5950L
g3
sL5951L
g3
sL5952L
g2
sL5953L
g2
sL5954L
g2
sL5955L
g2
sL5956L
g3
sL5957L
g2
sL5958L
g3
sL5959L
g2
sL5960L
g3
sL5961L
g4
sL5962L
g2
sL5964L
g3
sL5965L
g3
sL5966L
g2
sL5967L
g2
sL5968L
g2
sL5969L
g1
sL5970L
g3
sL5971L
g2
sL5972L
g2
sL5973L
g2
sL5974L
g1
sL5975L
g3
sL5976L
g3
sL5977L
g2
sL5978L
g3
sL5979L
g2
sL5980L
g2
sL5981L
g2
sL5982L
g2
sL5983L
g2
sL5984L
g2
sL5985L
g4
sL5986L
g2
sL5987L
g1
sL5988L
g3
sL5989L
g2
sL5990L
g3
sL5991L
g1
sL5992L
g3
sL5993L
g4
sL5994L
g3
sL33767L
g3
sL5996L
g3
sL5997L
g2
sL5999L
g2
sL6000L
g2
sL6001L
g3
sL6002L
g1
sL6003L
g2
sL6004L
g2
sL6005L
g1
sL6006L
g3
sL6007L
g2
sL6008L
g2
sL6009L
g2
sL6010L
g3
sL6011L
g3
sL6012L
g2
sL6013L
g3
sL6014L
g3
sL6015L
g3
sL6016L
g2
sL6017L
g3
sL6018L
g2
sL6019L
g2
sL6020L
g3
sL6021L
g2
sL6022L
g3
sL6023L
g3
sL6024L
g2
sL6025L
g3
sL6026L
g3
sL6027L
g3
sL6028L
g2
sL6029L
g3
sL6030L
g2
sL6031L
g2
sL6032L
g3
sL6033L
g3
sL6034L
g2
sL6035L
g3
sL6036L
g4
sL6037L
g2
sL6038L
g3
sL6039L
g3
sL6040L
g2
sL6041L
g2
sL6042L
g2
sL6043L
g3
sL6044L
g2
sL6045L
g2
sL6047L
g1
sL6048L
g2
sL6051L
g3
sL6052L
g1
sL6054L
g1
sL6055L
g1
sL6056L
g3
sL6058L
g3
sL6059L
g2
sL6063L
g4
sL6069L
g1
sL6070L
g2
sL33780L
g2
sL6074L
g3
sL6081L
g1
sL6083L
g1
sL6088L
g1
sL6089L
g3
sL6090L
g2
sL6091L
g2
sL6094L
g2
sL6096L
g1
sL33784L
g2
sL6099L
g2
sL6100L
g2
sL6101L
g3
sL6102L
g4
sL6103L
g4
sL6104L
g1
sL32937L
g3
sL6106L
g3
sL6108L
g3
sL6112L
g3
sL6113L
g3
sL6114L
g2
sL33787L
g3
sL6118L
g3
sL6121L
g4
sL6122L
g3
sL6124L
g1
sL6127L
g2
sL6130L
g3
sL6131L
g3
sL6135L
g1
sL6136L
g3
sL6139L
g1
sL6141L
g1
sL6144L
g2
sL33792L
g2
sL6155L
g2
sL6156L
g4
sL33794L
g2
sL6160L
g2
sL6161L
g1
sL6162L
g2
sL6163L
g3
sL6164L
g3
sL6167L
g3
sL6169L
g3
sL6171L
g3
sL6172L
g2
sL33797L
g3
sL6178L
g2
sL6183L
g3
sL6184L
g3
sL6186L
g2
sL6190L
g1
sL6198L
g3
sL6199L
g3
sL6203L
g1
sL6204L
g1
sL6208L
g3
sL6209L
g3
sL6212L
g3
sL6214L
g3
sL6217L
g3
sL6218L
g2
sL6221L
g3
sL6226L
g2
sL6229L
g1
sL6230L
g1
sL6231L
g3
sL6232L
g4
sL6235L
g2
sL6237L
g2
sL6239L
g1
sL6240L
g2
sL6244L
g1
sL6247L
g1
sL6248L
g1
sL6250L
g3
sL6251L
g2
sL6252L
g3
sL6253L
g3
sL6258L
g1
sL6259L
g4
sL6260L
g3
sL6261L
g4
sL6262L
g2
sL6264L
g3
sL6269L
g2
sL6271L
g3
sL6276L
g1
sL6277L
g1
sL6279L
g1
sL6283L
g1
sL6284L
g2
sL6285L
g3
sL6289L
g3
sL6292L
g3
sL6293L
g3
sL33817L
g3
sL6298L
g1
sL33819L
g1
sL6309L
g1
sL6311L
g1
sL6313L
g2
sL6320L
g3
sL6321L
g1
sL6326L
g3
sL6330L
g3
sL33823L
g2
sL6335L
g2
sL6338L
g4
sL6341L
g3
sL6342L
g2
sL6343L
g1
sL6346L
g4
sL6347L
g4
sL6348L
g1
sL33826L
g2
sL6350L
g2
sL6352L
g3
sL6355L
g3
sL6362L
g2
sL6365L
g3
sL6366L
g2
sL6372L
g2
sL33830L
g3
sL6374L
g3
sL6379L
g4
sL6380L
g1
sL6381L
g1
sL6383L
g3
sL6384L
g1
sL33832L
g2
sL6386L
g3
sL6387L
g1
sL6389L
g3
sL6391L
g3
sL6393L
g3
sL6394L
g3
sL6395L
g2
sL6396L
g3
sL33834L
g2
sL6398L
g3
sL6400L
g1
sL6401L
g3
sL33835L
g1
sL6405L
g3
sL6409L
g1
sL6410L
g2
sL6411L
g3
sL6415L
g1
sL6421L
g3
sL6424L
g1
sL6427L
g1
sL6430L
g2
sL6432L
g2
sL6433L
g2
sL6436L
g3
sL6438L
g3
sL6439L
g3
sL6440L
g1
sL6441L
g2
sL6444L
g1
sL33842L
g1
sL6446L
g3
sL6447L
g3
sL6449L
g2
sL6451L
g1
sL6453L
g3
sL6456L
g1
sL6459L
g2
sL6463L
g2
sL6465L
g3
sL6467L
g2
sL33847L
g3
sL6477L
g2
sL6479L
g3
sL6481L
g1
sL6485L
g2
sL6489L
g3
sL6490L
g2
sL6492L
g1
sL6493L
g4
sL6498L
g3
sL6505L
g3
sL6507L
g2
sL6508L
g2
sL6509L
g2
sL6510L
g2
sL33853L
g3
sL6513L
g1
sL6515L
g4
sL6524L
g1
sL6525L
g3
sL6526L
g1
sL6527L
g1
sL6528L
g3
sL6529L
g3
sL6530L
g3
sL6532L
g2
sL6536L
g2
sL6539L
g3
sL33858L
g1
sL6542L
g3
sL6544L
g2
sL33859L
g3
sL6559L
g4
sL6560L
g1
sL6562L
g3
sL6563L
g1
sL6565L
g3
sL6567L
g2
sL6568L
g3
sL6569L
g2
sL33863L
g2
sL6574L
g3
sL6575L
g1
sL6576L
g2
sL6579L
g3
sL6581L
g3
sL33865L
g2
sL6584L
g2
sL6588L
g1
sL33866L
g3
sL6590L
g2
sL33867L
g2
sL6596L
g3
sL6597L
g3
sL6599L
g1
sL33868L
g3
sL6603L
g1
sL33869L
g2
sL6612L
g3
sL6615L
g3
sL6620L
g2
sL6622L
g2
sL6624L
g3
sL6628L
g3
sL33873L
g3
sL6632L
g3
sL6634L
g1
sL6637L
g3
sL6638L
g2
sL6639L
g2
sL6643L
g1
sL6648L
g3
sL6649L
g3
sL6652L
g1
sL6661L
g3
sL6664L
g1
sL6668L
g1
sL33880L
g3
sL6688L
g3
sL33883L
g1
sL6693L
g3
sL6694L
g3
sL6699L
g3
sL6703L
g1
sL6707L
g1
sL6711L
g1
sL6713L
g1
sL6716L
g1
sL6717L
g1
sL6722L
g2
sL6724L
g3
sL6729L
g2
sL6730L
g3
sL6583L
g3
sL6735L
g4
sL6737L
g1
sL6738L
g1
sL6743L
g3
sL6745L
g1
sL6748L
g1
sL6749L
g3
sL6751L
g1
sL6752L
g1
sL6756L
g1
sL6757L
g1
sL6760L
g3
sL33895L
g2
sL6771L
g1
sL6774L
g3
sL6775L
g1
sL6776L
g3
sL6777L
g3
sL6778L
g3
sL6779L
g2
sL6780L
g2
sL6781L
g2
sL6782L
g2
sL6783L
g3
sL6785L
g2
sL6786L
g3
sL6787L
g2
sL6788L
g1
sL6790L
g3
sL6791L
g3
sL6793L
g3
sL6796L
g1
sL6798L
g3
sL6799L
g2
sL6800L
g2
sL6801L
g3
sL6803L
g2
sL6809L
g3
sL33903L
g2
sL6812L
g2
sL6815L
g3
sL33904L
g2
sL6818L
g1
sL6823L
g2
sL6824L
g3
sL6827L
g2
sL6828L
g1
sL6831L
g3
sL6834L
g3
sL6839L
g1
sL6841L
g3
sL6842L
g3
sL6843L
g3
sL6844L
g3
sL6846L
g1
sL6847L
g1
sL6848L
g3
sL33910L
g2
sL6854L
g1
sL32962L
g3
sL6858L
g1
sL6860L
g2
sL6862L
g2
sL6863L
g3
sL6864L
g3
sL6865L
g4
sL6866L
g3
sL6869L
g1
sL6873L
g1
sL6876L
g1
sL6881L
g2
sL33916L
g2
sL6890L
g3
sL6895L
g2
sL6900L
g3
sL6901L
g4
sL6903L
g2
sL6905L
g2
sL33919L
g2
sL6908L
g4
sL6910L
g1
sL6911L
g3
sL6913L
g3
sL32964L
g2
sL6919L
g2
sL6921L
g3
sL6923L
g2
sL6928L
g2
sL6930L
g1
sL6936L
g3
sL6941L
g3
sL6943L
g2
sL6944L
g2
sL6945L
g2
sL6946L
g3
sL33926L
g3
sL6951L
g1
sL6954L
g3
sL6955L
g3
sL33928L
g1
sL6962L
g2
sL6971L
g2
sL6972L
g2
sL33930L
g3
sL6975L
g2
sL6978L
g3
sL6979L
g2
sL6980L
g1
sL6982L
g2
sL33932L
g1
sL6987L
g1
sL6990L
g4
sL6991L
g1
sL6993L
g3
sL33934L
g3
sL6998L
g4
sL7000L
g2
sL7001L
g3
sL7002L
g3
sL7005L
g3
sL7007L
g3
sL7008L
g2
sL7011L
g3
sL7012L
g2
sL7016L
g4
sL7017L
g4
sL6631L
g3
sL7020L
g3
sL7021L
g2
sL7027L
g1
sL7028L
g2
sL7031L
g3
sL33940L
g2
sL32968L
g2
sL7038L
g2
sL7039L
g1
sL7042L
g3
sL7046L
g3
sL33943L
g1
sL7052L
g3
sL7056L
g3
sL7058L
g1
sL7059L
g1
sL7060L
g3
sL7061L
g3
sL7062L
g3
sL33945L
g3
sL7066L
g1
sL7067L
g1
sL33946L
g2
sL7070L
g2
sL7071L
g3
sL7073L
g3
sL7075L
g3
sL7077L
g3
sL33948L
g2
sL7082L
g1
sL7084L
g3
sL7085L
g2
sL7087L
g1
sL7092L
g2
sL7093L
g3
sL7097L
g1
sL7098L
g2
sL7100L
g3
sL7102L
g3
sL7105L
g3
sL7114L
g1
sL7116L
g4
sL7118L
g3
sL7121L
g2
sL7125L
g3
sL7126L
g3
sL7129L
g3
sL7130L
g3
sL7133L
g3
sL7135L
g2
sL7136L
g4
sL7138L
g2
sL7140L
g2
sL7141L
g3
sL7142L
g3
sL7146L
g3
sL7147L
g1
sL7148L
g1
sL7149L
g3
sL7150L
g2
sL7152L
g3
sL7154L
g2
sL7159L
g3
sL7160L
g3
sL7162L
g3
sL7163L
g3
sL7164L
g3
sL7166L
g2
sL7170L
g2
sL7172L
g3
sL7173L
g2
sL7174L
g1
sL7175L
g1
sL7178L
g4
sL7181L
g2
sL7185L
g3
sL7186L
g2
sL7189L
g2
sL7190L
g3
sL7194L
g3
sL7195L
g3
sL7196L
g3
sL7197L
g2
sL7198L
g4
sL7199L
g3
sL7200L
g2
sL7201L
g3
sL7204L
g3
sL7206L
g3
sL7208L
g2
sL7209L
g1
sL7212L
g2
sL7214L
g2
sL7215L
g2
sL7216L
g4
sL7217L
g2
sL7218L
g3
sL33971L
g4
sL7220L
g2
sL7221L
g2
sL7223L
g2
sL7224L
g1
sL7225L
g3
sL7226L
g2
sL7227L
g3
sL7228L
g1
sL7229L
g3
sL7231L
g1
sL7232L
g3
sL7234L
g3
sL7235L
g3
sL7236L
g2
sL7237L
g3
sL7238L
g2
sL7239L
g3
sL7240L
g2
sL7241L
g2
sL7242L
g3
sL7243L
g3
sL7244L
g2
sL7246L
g2
sL7250L
g2
sL7252L
g2
sL7254L
g3
sL7256L
g4
sL7258L
g2
sL33978L
g2
sL7262L
g3
sL7263L
g1
sL33979L
g2
sL6673L
g4
sL7275L
g2
sL33982L
g1
sL7289L
g1
sL7297L
g2
sL7299L
g3
sL7300L
g1
sL33985L
g3
sL7304L
g3
sL7305L
g3
sL32977L
g3
sL7308L
g2
sL33986L
g1
sL7312L
g2
sL7313L
g3
sL7315L
g2
sL7318L
g2
sL7321L
g2
sL7324L
g2
sL7325L
g3
sL7333L
g2
sL7335L
g1
sL7338L
g2
sL7340L
g2
sL7341L
g3
sL7342L
g2
sL7344L
g2
sL33992L
g3
sL7347L
g3
sL7351L
g3
sL7352L
g2
sL7354L
g3
sL7355L
g2
sL33994L
g1
sL7358L
g3
sL7362L
g1
sL7364L
g2
sL7365L
g2
sL7366L
g2
sL7368L
g3
sL7373L
g2
sL7374L
g3
sL7375L
g3
sL7376L
g2
sL7377L
g3
sL7378L
g1
sL7381L
g3
sL7382L
g1
sL7386L
g3
sL33999L
g1
sL7388L
g2
sL7389L
g2
sL7391L
g3
sL7399L
g2
sL7413L
g2
sL7420L
g3
sL7430L
g2
sL33825L
g1
sL7433L
g2
sL7435L
g2
sL7436L
g1
sL7437L
g2
sL7449L
g3
sL7450L
g3
sL7452L
g2
sL7462L
g2
sL7463L
g2
sL7465L
g3
sL7467L
g2
sL7470L
g1
sL7471L
g1
sL7475L
g1
sL7478L
g3
sL7479L
g3
sL7480L
g3
sL7482L
g3
sL7484L
g2
sL7487L
g1
sL34016L
g3
sL7491L
g2
sL7492L
g2
sL7495L
g3
sL7498L
g2
sL7499L
g2
sL34018L
g3
sL7507L
g2
sL7513L
g2
sL7518L
g2
sL7527L
g2
sL34023L
g3
sL7532L
g2
sL7534L
g4
sL7537L
g2
sL7542L
g3
sL34025L
g2
sL7544L
g2
sL32985L
g2
sL7547L
g3
sL7548L
g3
sL34026L
g2
sL7552L
g2
sL7553L
g2
sL7561L
g2
sL33875L
g2
sL7567L
g1
sL7568L
g2
sL7569L
g3
sL7572L
g2
sL7573L
g2
sL7579L
g3
sL7582L
g2
sL7585L
g2
sL34034L
g1
sL7603L
g2
sL7605L
g2
sL34038L
g1
sL7638L
g1
sL34041L
g2
sL7643L
g2
sL34043L
g2
sL7653L
g2
sL34044L
g1
sL7659L
g2
sL7661L
g3
sL34045L
g1
sL7669L
g2
sL7670L
g3
sL7677L
g3
sL7678L
g2
sL7681L
g3
sL7683L
g2
sL7686L
g4
sL7695L
g4
sL7698L
g2
sL34051L
g1
sL7704L
g2
sL7708L
g4
sL7710L
g3
sL7711L
g3
sL7714L
g3
sL7716L
g2
sL7722L
g3
sL7724L
g2
sL7726L
g2
sL7727L
g2
sL7728L
g2
sL7729L
g2
sL7730L
g2
sL7731L
g2
sL7732L
g2
sL7733L
g3
sL7734L
g2
sL7735L
g3
sL7736L
g3
sL7738L
g2
sL7739L
g2
sL7740L
g3
sL7741L
g4
sL7742L
g2
sL7743L
g2
sL7744L
g3
sL7745L
g2
sL7746L
g3
sL7747L
g1
sL7748L
g3
sL7749L
g2
sL7751L
g3
sL7752L
g3
sL7753L
g3
sL7754L
g3
sL7755L
g3
sL7757L
g2
sL7758L
g2
sL7759L
g4
sL7760L
g3
sL7761L
g3
sL7764L
g2
sL7765L
g2
sL7766L
g2
sL7767L
g2
sL7769L
g1
sL7770L
g2
sL7771L
g2
sL7773L
g1
sL7774L
g3
sL7775L
g2
sL7776L
g2
sL7777L
g2
sL7778L
g2
sL7779L
g3
sL7780L
g2
sL1297L
g4
sL7788L
g1
sL7792L
g3
sL7793L
g4
sL7794L
g3
sL7797L
g3
sL7798L
g2
sL7799L
g2
sL34068L
g2
sL7803L
g3
sL34069L
g3
sL7808L
g2
sL7811L
g3
sL7812L
g2
sL34070L
g3
sL7816L
g3
sL7818L
g1
sL34071L
g1
sL7821L
g3
sL34072L
g1
sL7826L
g2
sL7831L
g2
sL7832L
g1
sL7833L
g2
sL7835L
g2
sL7836L
g2
sL7840L
g2
sL7844L
g3
sL7846L
g3
sL7851L
g1
sL7853L
g1
sL7854L
g2
sL7855L
g2
sL7856L
g3
sL7857L
g2
sL7859L
g2
sL7860L
g2
sL7861L
g2
sL7866L
g2
sL7868L
g3
sL7870L
g2
sL7871L
g2
sL32996L
g3
sL7879L
g2
sL7880L
g3
sL7882L
g1
sL7888L
g2
sL7889L
g2
sL7891L
g3
sL7892L
g2
sL7893L
g2
sL7894L
g2
sL7895L
g2
sL7899L
g2
sL7900L
g3
sL7901L
g2
sL7903L
g3
sL7904L
g2
sL7910L
g2
sL7911L
g3
sL7912L
g1
sL7913L
g3
sL7914L
g3
sL7916L
g2
sL7917L
g2
sL7918L
g2
sL7919L
g2
sL7920L
g3
sL7922L
g3
sL7923L
g3
sL7926L
g1
sL7928L
g2
sL7929L
g2
sL7930L
g2
sL7931L
g2
sL7932L
g2
sL7933L
g3
sL7936L
g2
sL7937L
g3
sL7938L
g2
sL34092L
g1
sL7948L
g2
sL7949L
g2
sL7950L
g2
sL7951L
g3
sL7952L
g2
sL7953L
g2
sL7955L
g2
sL7956L
g3
sL7958L
g3
sL7960L
g2
sL7961L
g2
sL7962L
g2
sL7963L
g2
sL7966L
g2
sL7967L
g2
sL7968L
g2
sL7969L
g2
sL7970L
g2
sL7971L
g3
sL7972L
g2
sL7973L
g2
sL7980L
g3
sL7981L
g3
sL7982L
g3
sL7983L
g3
sL7984L
g3
sL7986L
g1
sL7987L
g2
sL7988L
g3
sL7989L
g2
sL7990L
g3
sL7991L
g2
sL7992L
g1
sL7993L
g3
sL7994L
g2
sL7996L
g2
sL7999L
g3
sL8000L
g2
sL8003L
g3
sL8004L
g1
sL8005L
g3
sL8006L
g3
sL8007L
g3
sL8008L
g1
sL8009L
g2
sL8010L
g3
sL8011L
g1
sL8012L
g2
sL8013L
g2
sL8014L
g2
sL8015L
g2
sL8016L
g2
sL8017L
g3
sL8018L
g2
sL8019L
g2
sL8021L
g2
sL8022L
g2
sL8023L
g1
sL8024L
g2
sL8025L
g2
sL8027L
g1
sL8028L
g3
sL8029L
g2
sL8030L
g2
sL8031L
g2
sL8033L
g2
sL8034L
g2
sL8035L
g3
sL8036L
g1
sL8037L
g2
sL8038L
g3
sL8039L
g2
sL8040L
g2
sL8041L
g3
sL8042L
g3
sL8045L
g1
sL8046L
g3
sL8047L
g3
sL8048L
g2
sL8049L
g3
sL8050L
g2
sL8051L
g1
sL8052L
g2
sL8053L
g2
sL8057L
g2
sL8058L
g3
sL8060L
g2
sL8061L
g3
sL8062L
g2
sL8063L
g2
sL8064L
g2
sL8065L
g2
sL8066L
g2
sL8067L
g1
sL8068L
g3
sL8069L
g3
sL34113L
g1
sL8072L
g3
sL8073L
g3
sL8074L
g2
sL8077L
g2
sL8079L
g2
sL8081L
g2
sL8087L
g2
sL8089L
g2
sL8090L
g2
sL8091L
g1
sL8094L
g1
sL8099L
g2
sL8101L
g2
sL8102L
g2
sL8103L
g3
sL8104L
g3
sL8105L
g2
sL8108L
g2
sL8110L
g3
sL8111L
g2
sL8112L
g3
sL8113L
g1
sL8114L
g3
sL8118L
g2
sL8119L
g2
sL8120L
g2
sL8121L
g2
sL8122L
g2
sL8123L
g2
sL8124L
g2
sL8125L
g1
sL8126L
g2
sL8127L
g2
sL8128L
g2
sL8129L
g2
sL8130L
g2
sL8131L
g2
sL8132L
g1
sL8133L
g2
sL8134L
g1
sL8135L
g2
sL8136L
g1
sL8137L
g3
sL8138L
g2
sL8139L
g3
sL8140L
g2
sL8141L
g2
sL8142L
g2
sL8143L
g2
sL8144L
g2
sL8145L
g2
sL8146L
g2
sL8147L
g3
sL8148L
g2
sL8149L
g2
sL8150L
g2
sL8151L
g3
sL8152L
g2
sL8153L
g2
sL8154L
g2
sL8155L
g2
sL8156L
g2
sL8157L
g2
sL8158L
g3
sL8159L
g3
sL8160L
g2
sL8161L
g3
sL8162L
g3
sL8163L
g2
sL8164L
g2
sL8165L
g3
sL8166L
g2
sL8167L
g2
sL8168L
g2
sL8169L
g3
sL8170L
g2
sL8171L
g3
sL8172L
g3
sL8173L
g2
sL8174L
g2
sL8175L
g2
sL8176L
g2
sL8177L
g1
sL8178L
g2
sL8179L
g1
sL8180L
g3
sL8182L
g2
sL8183L
g1
sL8184L
g2
sL8185L
g3
sL8186L
g1
sL8187L
g3
sL8188L
g3
sL8189L
g2
sL8190L
g2
sL8191L
g1
sL8192L
g1
sL8193L
g3
sL8194L
g4
sL8195L
g2
sL8196L
g2
sL8198L
g1
sL8200L
g2
sL8202L
g2
sL8205L
g2
sL8206L
g3
sL8207L
g2
sL8208L
g2
sL8209L
g3
sL8210L
g2
sL8211L
g3
sL8212L
g3
sL8213L
g3
sL34099L
g3
sL33010L
g3
sL8300L
g1
sL8321L
g1
sL8326L
g2
sL8360L
g3
sL8363L
g1
sL6856L
g3
sL8388L
g3
sL8398L
g3
sL34105L
g3
sL8431L
g4
sL34106L
g2
sL8457L
g2
sL33016L
g2
sL33836L
g3
sL8610L
g1
sL8621L
g2
sL8622L
g3
sL8625L
g3
sL8627L
g3
sL8631L
g3
sL8632L
g2
sL8633L
g2
sL8634L
g2
sL8635L
g4
sL8637L
g2
sL8638L
g2
sL8642L
g3
sL8644L
g4
sL8645L
g2
sL8646L
g2
sL8648L
g3
sL8649L
g1
sL8650L
g3
sL8651L
g3
sL8652L
g3
sL8653L
g3
sL8654L
g3
sL8655L
g3
sL8656L
g3
sL8657L
g2
sL8658L
g2
sL8659L
g2
sL8660L
g3
sL8661L
g2
sL8662L
g3
sL8665L
g3
sL8666L
g2
sL8667L
g3
sL8668L
g1
sL8669L
g2
sL8670L
g2
sL8671L
g2
sL8673L
g2
sL8674L
g1
sL8676L
g3
sL8677L
g2
sL8678L
g3
sL8679L
g3
sL8680L
g2
sL8682L
g2
sL8683L
g3
sL8684L
g2
sL8685L
g3
sL8686L
g3
sL8687L
g2
sL8689L
g3
sL8690L
g3
sL8691L
g3
sL8692L
g3
sL8693L
g2
sL8694L
g2
sL8696L
g1
sL8697L
g1
sL8698L
g2
sL8699L
g1
sL8701L
g3
sL8702L
g2
sL8703L
g1
sL8704L
g3
sL8705L
g1
sL8707L
g1
sL8710L
g1
sL8711L
g3
sL8712L
g2
sL8714L
g2
sL8715L
g3
sL8716L
g3
sL8718L
g2
sL8719L
g1
sL8720L
g1
sL8722L
g1
sL8723L
g1
sL8724L
g3
sL8725L
g3
sL8726L
g1
sL8727L
g2
sL8728L
g1
sL8729L
g4
sL8730L
g3
sL8731L
g1
sL8732L
g1
sL8733L
g1
sL8734L
g3
sL8735L
g2
sL8736L
g2
sL8737L
g2
sL8738L
g2
sL8739L
g4
sL8740L
g2
sL8741L
g3
sL8742L
g2
sL8743L
g1
sL8744L
g3
sL8745L
g3
sL8746L
g3
sL8747L
g2
sL8748L
g2
sL8749L
g2
sL8750L
g2
sL8754L
g2
sL8755L
g2
sL8757L
g2
sL8758L
g3
sL8759L
g2
sL8760L
g3
sL8761L
g2
sL8762L
g4
sL8763L
g3
sL8765L
g2
sL8766L
g1
sL8769L
g3
sL8770L
g3
sL8773L
g1
sL8774L
g2
sL8775L
g1
sL8776L
g1
sL8777L
g1
sL33026L
g2
sL8779L
g2
sL8780L
g3
sL8781L
g2
sL8782L
g2
sL8783L
g2
sL8784L
g2
sL8786L
g3
sL8787L
g3
sL8788L
g3
sL8791L
g3
sL8793L
g2
sL8794L
g2
sL8795L
g3
sL8796L
g2
sL8797L
g2
sL8798L
g1
sL8799L
g2
sL8801L
g2
sL8802L
g2
sL8803L
g2
sL8804L
g2
sL8805L
g2
sL8808L
g2
sL8809L
g2
sL8812L
g2
sL8813L
g2
sL8814L
g2
sL8816L
g2
sL8818L
g1
sL8819L
g3
sL8820L
g4
sL8821L
g3
sL8822L
g1
sL8823L
g2
sL8824L
g2
sL8825L
g3
sL8826L
g2
sL8827L
g2
sL8828L
g3
sL8829L
g4
sL8832L
g3
sL8833L
g3
sL8834L
g3
sL8835L
g3
sL8836L
g3
sL8837L
g3
sL33028L
g3
sL8839L
g2
sL8840L
g2
sL8841L
g3
sL8843L
g3
sL8844L
g2
sL8845L
g3
sL8846L
g2
sL8848L
g3
sL8850L
g2
sL8852L
g1
sL8853L
g2
sL8856L
g3
sL8858L
g1
sL8859L
g2
sL8863L
g3
sL8864L
g1
sL8865L
g1
sL8867L
g3
sL8868L
g3
sL8869L
g3
sL8870L
g1
sL8874L
g1
sL8875L
g3
sL8877L
g3
sL8878L
g3
sL8880L
g3
sL8882L
g3
sL8884L
g3
sL8885L
g1
sL8886L
g1
sL8887L
g3
sL8888L
g2
sL8889L
g2
sL8892L
g3
sL8894L
g2
sL8895L
g3
sL8896L
g3
sL8898L
g2
sL8899L
g3
sL8900L
g1
sL8901L
g3
sL8902L
g3
sL8903L
g4
sL8904L
g2
sL8905L
g3
sL8907L
g3
sL8908L
g1
sL8911L
g3
sL8912L
g3
sL8913L
g3
sL8915L
g1
sL8916L
g3
sL8918L
g3
sL8920L
g3
sL8921L
g3
sL8922L
g2
sL8923L
g1
sL8925L
g3
sL8926L
g1
sL8928L
g3
sL8929L
g3
sL8930L
g3
sL8931L
g3
sL8934L
g3
sL8935L
g3
sL8936L
g2
sL8937L
g2
sL8939L
g3
sL8940L
g3
sL8942L
g3
sL8944L
g2
sL8946L
g3
sL8947L
g3
sL8949L
g2
sL8950L
g2
sL8951L
g3
sL8952L
g3
sL8953L
g3
sL8955L
g3
sL8956L
g2
sL8958L
g1
sL8959L
g2
sL8960L
g3
sL8961L
g1
sL8962L
g3
sL8963L
g3
sL8964L
g3
sL8965L
g3
sL8966L
g2
sL8967L
g2
sL8968L
g2
sL8969L
g1
sL8970L
g1
sL8971L
g3
sL8973L
g3
sL8974L
g3
sL8975L
g1
sL8976L
g3
sL8977L
g3
sL8978L
g3
sL8979L
g3
sL8980L
g2
sL8981L
g2
sL8982L
g3
sL8983L
g3
sL8984L
g3
sL8985L
g3
sL8986L
g3
sL8987L
g3
sL8988L
g3
sL8989L
g4
sL8990L
g3
sL8991L
g2
sL8992L
g3
sL8993L
g2
sL8994L
g2
sL8995L
g2
sL8996L
g2
sL8997L
g2
sL8998L
g2
sL8999L
g2
sL9000L
g2
sL9001L
g2
sL9002L
g3
sL9003L
g2
sL9004L
g2
sL9005L
g2
sL9006L
g3
sL9007L
g2
sL9008L
g3
sL9009L
g3
sL9010L
g2
sL9011L
g1
sL9012L
g2
sL9015L
g2
sL33034L
g3
sL9019L
g2
sL9021L
g3
sL9030L
g3
sL9032L
g2
sL9035L
g2
sL9037L
g2
sL9039L
g2
sL9041L
g2
sL9043L
g2
sL9044L
g3
sL9046L
g2
sL33035L
g2
sL9058L
g2
sL9059L
g2
sL9060L
g2
sL9061L
g1
sL9062L
g1
sL9063L
g3
sL9065L
g2
sL9066L
g3
sL9067L
g2
sL9072L
g2
sL9073L
g1
sL9074L
g3
sL9075L
g3
sL9076L
g3
sL9078L
g3
sL9079L
g3
sL9080L
g3
sL9081L
g3
sL9082L
g2
sL9083L
g3
sL9084L
g3
sL9085L
g2
sL9086L
g2
sL9097L
g1
sL9098L
g3
sL9100L
g3
sL9101L
g2
sL9102L
g1
sL9103L
g3
sL9104L
g3
sL9105L
g2
sL9107L
g3
sL9108L
g1
sL9109L
g3
sL9110L
g2
sL9111L
g3
sL9113L
g2
sL9114L
g2
sL9115L
g3
sL9116L
g3
sL9117L
g2
sL9118L
g2
sL9120L
g3
sL9121L
g2
sL9122L
g2
sL9128L
g4
sL9129L
g3
sL9130L
g3
sL9131L
g3
sL9132L
g3
sL9133L
g2
sL9134L
g2
sL9135L
g2
sL9136L
g2
sL9137L
g3
sL33038L
g3
sL9139L
g2
sL9140L
g3
sL9141L
g2
sL9144L
g2
sL9145L
g2
sL9146L
g2
sL9147L
g3
sL9148L
g2
sL9151L
g4
sL9152L
g3
sL9153L
g3
sL9154L
g3
sL9155L
g2
sL9157L
g2
sL33039L
g4
sL28838L
g1
sL9213L
g3
sL33041L
g2
sL33042L
g3
sL9311L
g2
sL33045L
g2
sL33047L
g2
sL9425L
g2
sL9437L
g3
sL9438L
g3
sL9439L
g3
sL9440L
g1
sL9442L
g2
sL9444L
g2
sL9446L
g2
sL33049L
g2
sL33050L
g2
sL33054L
g1
sL33055L
g2
sL9687L
g3
sL33057L
g3
sL33060L
g3
sL33061L
g3
sL33062L
g2
sL33063L
g3
sL33064L
g2
sL33065L
g3
sL33067L
g3
sL33838L
g3
sL33071L
g3
sL10140L
g4
sL10203L
g3
sL33074L
g1
sL33078L
g2
sL10343L
g2
sL33079L
g2
sL33080L
g2
sL33082L
g2
sL33083L
g2
sL33084L
g2
sL33085L
g2
sL33087L
g2
sL33088L
g3
sL33090L
g2
sL33091L
g3
sL33092L
g3
sL33093L
g2
sL33839L
g3
sL34570L
g2
sL33095L
g3
sL33024L
g2
sL33096L
g2
sL33098L
g2
sL33099L
g2
sL34116L
g3
sL11000L
g1
sL33025L
g2
sL33104L
g1
sL11156L
g4
sL33899L
g3
sL33106L
g1
sL33107L
g2
sL33109L
g3
sL11284L
g1
sL33110L
g4
sL33111L
g3
sL33112L
g2
sL33113L
g3
sL33114L
g2
sL11444L
g3
sL33115L
g1
sL33901L
g3
sL11485L
g2
sL11491L
g3
sL33117L
g3
sL33119L
g1
sL33120L
g1
sL11628L
g1
sL33121L
g4
sL34721L
g3
sL34722L
g2
sL34723L
g1
sL11736L
g1
sL34725L
g2
sL34726L
g2
sL33125L
g3
sL33030L
g2
sL34729L
g1
sL34730L
g1
sL34731L
g3
sL34732L
g1
sL34733L
g1
sL34736L
g3
sL33127L
g1
sL34737L
g2
sL34739L
g2
sL34740L
g3
sL33128L
g3
sL34742L
g3
sL34743L
g3
sL34744L
g2
sL33129L
g2
sL34747L
g2
sL34748L
g3
sL34749L
g3
sL34750L
g4
sL33130L
g2
sL34752L
g1
sL34753L
g2
sL34754L
g2
sL34755L
g2
sL34756L
g3
sL34759L
g4
sL34760L
g3
sL34761L
g1
sL34763L
g2
sL34764L
g2
sL34765L
g3
sL33133L
g2
sL34767L
g2
sL12004L
g3
sL34770L
g3
sL33134L
g2
sL34775L
g2
sL34776L
g3
sL33135L
g2
sL34777L
g3
sL34778L
g2
sL34779L
g2
sL34781L
g3
sL33136L
g2
sL34782L
g2
sL32814L
g2
sL34783L
g1
sL34784L
g2
sL34785L
g2
sL34786L
g2
sL33137L
g2
sL34787L
g3
sL34788L
g3
sL34789L
g3
sL34790L
g2
sL33138L
g3
sL34794L
g2
sL34796L
g3
sL34797L
g1
sL34798L
g1
sL34124L
g2
sL34799L
g1
sL34800L
g3
sL33140L
g1
sL34802L
g2
sL34803L
g3
sL34804L
g1
sL34805L
g2
sL34806L
g2
sL33141L
g2
sL34808L
g3
sL34809L
g3
sL34811L
g3
sL33142L
g2
sL34812L
g3
sL34816L
g3
sL33143L
g2
sL34817L
g3
sL34818L
g3
sL34821L
g3
sL34822L
g2
sL34825L
g3
sL34826L
g2
sL34827L
g3
sL34828L
g1
sL34829L
g3
sL34831L
g2
sL34832L
g3
sL34833L
g3
sL34834L
g2
sL34835L
g2
sL34836L
g2
sL34837L
g2
sL34838L
g2
sL34839L
g2
sL34840L
g3
sL34843L
g1
sL34844L
g2
sL34846L
g3
sL33149L
g2
sL34847L
g1
sL34848L
g3
sL34850L
g2
sL34851L
g3
sL33150L
g1
sL34852L
g3
sL34853L
g2
sL34854L
g2
sL33151L
g3
sL34858L
g2
sL34859L
g1
sL34860L
g3
sL34861L
g1
sL34862L
g4
sL34863L
g2
sL34864L
g1
sL34865L
g2
sL33153L
g3
sL34867L
g2
sL34868L
g3
sL34869L
g2
sL34870L
g1
sL34871L
g3
sL33154L
g1
sL34872L
g4
sL34873L
g2
sL34874L
g2
sL34875L
g3
sL34876L
g3
sL33036L
g2
sL34879L
g2
sL33909L
g3
sL34880L
g3
sL34881L
g3
sL34883L
g3
sL34885L
g2
sL34886L
g2
sL33157L
g2
sL34887L
g3
sL34889L
g2
sL34890L
g2
sL34892L
g2
sL34894L
g2
sL34895L
g3
sL34896L
g3
sL34897L
g2
sL34898L
g2
sL34899L
g1
sL34900L
g3
sL34901L
g2
sL34903L
g3
sL7597L
g4
sL34904L
g2
sL34906L
g2
sL33161L
g3
sL34908L
g3
sL34909L
g3
sL34910L
g3
sL34911L
g4
sL34912L
g2
sL34913L
g1
sL34914L
g2
sL34060L
g2
sL34915L
g2
sL33163L
g3
sL34917L
g2
sL34918L
g1
sL34919L
g3
sL34920L
g3
sL34921L
g2
sL33164L
g3
sL34923L
g1
sL34924L
g1
sL34927L
g3
sL34928L
g3
sL34930L
g3
sL33166L
g3
sL34932L
g3
sL34933L
g2
sL34935L
g2
sL34936L
g2
sL33167L
g1
sL34939L
g3
sL34942L
g3
sL34943L
g3
sL34944L
g2
sL34945L
g2
sL34946L
g2
sL33169L
g3
sL34947L
g2
sL34948L
g3
sL34949L
g1
sL34950L
g1
sL34951L
g3
sL34952L
g2
sL34954L
g2
sL34955L
g3
sL34956L
g2
sL33171L
g3
sL34957L
g2
sL7651L
g3
sL34958L
g2
sL34959L
g2
sL34960L
g2
sL34961L
g2
sL33172L
g3
sL34963L
g3
sL34964L
g3
sL34966L
g2
sL33173L
g2
sL34968L
g2
sL34969L
g2
sL34970L
g3
sL33174L
g3
sL34972L
g3
sL34973L
g3
sL34974L
g3
sL34975L
g2
sL34976L
g1
sL34977L
g2
sL34978L
g3
sL34979L
g2
sL34981L
g2
sL33176L
g2
sL34982L
g3
sL34983L
g2
sL34985L
g2
sL34986L
g2
sL33177L
g2
sL34987L
g2
sL34988L
g2
sL34989L
g4
sL34991L
g3
sL33178L
g1
sL34992L
g2
sL34993L
g3
sL34994L
g2
sL34995L
g3
sL34996L
g3
sL33179L
g2
sL34997L
g1
sL34998L
g3
sL13396L
g1
sL33180L
g2
sL35002L
g4
sL35004L
g3
sL35005L
g3
sL33181L
g2
sL35007L
g2
sL35008L
g1
sL35009L
g2
sL35012L
g3
sL35013L
g3
sL35014L
g2
sL35015L
g2
sL35017L
g2
sL35018L
g3
sL35019L
g3
sL35020L
g3
sL35021L
g1
sL33184L
g1
sL35022L
g3
sL35023L
g2
sL35024L
g3
sL35026L
g2
sL35028L
g2
sL35029L
g3
sL35030L
g2
sL35031L
g3
sL35032L
g3
sL13586L
g4
sL35033L
g2
sL35034L
g2
sL35035L
g3
sL35036L
g3
sL35037L
g2
sL35038L
g3
sL35039L
g2
sL35040L
g3
sL35041L
g2
sL35042L
g2
sL35043L
g2
sL35044L
g2
sL35045L
g2
sL35046L
g2
sL33189L
g2
sL35047L
g2
sL35048L
g2
sL35049L
g3
sL35050L
g3
sL35051L
g3
sL33190L
g3
sL35052L
g3
sL35053L
g3
sL35054L
g1
sL35055L
g2
sL35056L
g2
sL33191L
g3
sL35057L
g3
sL35058L
g2
sL35059L
g3
sL35060L
g3
sL35061L
g3
sL33192L
g1
sL35062L
g2
sL35063L
g2
sL35064L
g3
sL35066L
g1
sL35067L
g3
sL33843L
g1
sL35069L
g3
sL35070L
g3
sL35071L
g3
sL33194L
g3
sL35072L
g3
sL35073L
g3
sL35074L
g2
sL35075L
g1
sL35076L
g2
sL35077L
g2
sL35078L
g3
sL35079L
g2
sL33917L
g3
sL13870L
g3
sL35080L
g3
sL35081L
g3
sL35082L
g3
sL35083L
g3
sL35084L
g3
sL35086L
g2
sL33197L
g3
sL35087L
g3
sL35088L
g2
sL35089L
g2
sL35090L
g2
sL35091L
g2
sL35092L
g3
sL35093L
g2
sL35094L
g3
sL35095L
g3
sL35096L
g2
sL33199L
g3
sL35097L
g3
sL35098L
g3
sL35100L
g2
sL35101L
g1
sL33200L
g2
sL35102L
g2
sL35103L
g3
sL33918L
g1
sL35106L
g3
sL33201L
g3
sL7801L
g2
sL35108L
g3
sL33202L
g3
sL35115L
g3
sL33203L
g3
sL33204L
g3
sL35123L
g2
sL35124L
g3
sL35125L
g2
sL35126L
g2
sL33205L
g1
sL35127L
g2
sL35128L
g2
sL35130L
g3
sL35131L
g3
sL7825L
g2
sL35132L
g3
sL35133L
g2
sL35134L
g2
sL35135L
g2
sL35136L
g2
sL35137L
g3
sL35138L
g2
sL35139L
g2
sL35140L
g3
sL35141L
g3
sL35142L
g3
sL35143L
g3
sL35144L
g3
sL35145L
g3
sL35146L
g2
sL33209L
g2
sL35147L
g3
sL14278L
g1
sL35148L
g2
sL35149L
g2
sL35150L
g3
sL35151L
g3
sL33210L
g2
sL35152L
g1
sL35153L
g2
sL35155L
g3
sL33920L
g2
sL35157L
g2
sL35161L
g2
sL33212L
g3
sL33213L
g1
sL35169L
g3
sL33214L
g2
sL35173L
g3
sL35174L
g1
sL35175L
g2
sL35176L
g1
sL33215L
g3
sL35177L
g3
sL35178L
g4
sL35179L
g3
sL33921L
g2
sL35181L
g3
sL35182L
g3
sL32830L
g2
sL35183L
g1
sL7877L
g2
sL35185L
g3
sL35186L
g3
sL35187L
g3
sL35188L
g3
sL35189L
g2
sL35192L
g3
sL35193L
g1
sL35194L
g3
sL35196L
g3
sL35197L
g3
sL35199L
g3
sL35200L
g3
sL35201L
g3
sL33220L
g2
sL35202L
g3
sL35204L
g1
sL35205L
g1
sL35206L
g2
sL33221L
g3
sL35207L
g3
sL35208L
g1
sL35209L
g4
sL35210L
g3
sL35211L
g2
sL33222L
g2
sL35213L
g2
sL35214L
g2
sL35215L
g1
sL35216L
g2
sL35217L
g2
sL35218L
g2
sL35219L
g2
sL35220L
g2
sL35221L
g3
sL35222L
g1
sL35223L
g1
sL35224L
g2
sL35225L
g2
sL33225L
g2
sL33226L
g2
sL33228L
g2
sL35244L
g3
sL33229L
g2
sL35247L
g2
sL35249L
g2
sL33230L
g3
sL35255L
g3
sL35261L
g2
sL35267L
g2
sL35269L
g3
sL35273L
g2
sL35277L
g3
sL35280L
g2
sL33925L
g3
sL35282L
g3
sL35285L
g2
sL35286L
g2
sL33237L
g3
sL33238L
g3
sL35292L
g3
sL35296L
g2
sL33239L
g2
sL35298L
g3
sL35300L
g2
sL35307L
g2
sL33242L
g3
sL35312L
g2
sL35314L
g2
sL33243L
g2
sL35318L
g2
sL35320L
g2
sL15315L
g1
sL33244L
g3
sL35323L
g2
sL33245L
g2
sL33927L
g1
sL33246L
g2
sL35334L
g2
sL35336L
g2
sL33247L
g3
sL35339L
g2
sL35340L
g2
sL35341L
g2
sL33248L
g1
sL35343L
g2
sL35348L
g2
sL35349L
g2
sL33251L
g3
sL15549L
g3
sL33252L
g1
sL33256L
g1
sL33257L
g2
sL33258L
g2
sL33259L
g3
sL33260L
g2
sL33261L
g3
sL33264L
g3
sL33265L
g2
sL33266L
g2
sL16022L
g1
sL33269L
g3
sL33270L
g1
sL16122L
g3
sL33271L
g2
sL33272L
g2
sL33273L
g2
sL33274L
g2
sL33933L
g3
sL33276L
g2
sL33278L
g2
sL33279L
g2
sL33283L
g1
sL33284L
g2
sL33285L
g3
sL33286L
g3
sL33287L
g3
sL33288L
g2
sL33291L
g1
sL16836L
g3
sL33299L
g1
sL33300L
g2
sL33301L
g3
sL33302L
g3
sL33304L
g2
sL33305L
g3
sL17191L
g1
sL33308L
g2
sL17256L
g2
sL33309L
g1
sL33311L
g3
sL33312L
g1
sL33315L
g3
sL33941L
g3
sL32975L
g2
sL33316L
g2
sL33317L
g3
sL33848L
g1
sL33319L
g3
sL33320L
g3
sL33322L
g2
sL33324L
g3
sL33326L
g3
sL33327L
g3
sL33329L
g4
sL17930L
g2
sL33331L
g2
sL17972L
g1
sL33333L
g3
sL33334L
g3
sL33335L
g2
sL33336L
g2
sL8477L
g1
sL33337L
g2
sL33339L
g3
sL32855L
g1
sL33342L
g2
sL33343L
g2
sL33344L
g2
sL18343L
g1
sL33345L
g1
sL33947L
g1
sL33346L
g3
sL33347L
g3
sL33349L
g2
sL33351L
g2
sL18547L
g3
sL33355L
g1
sL33949L
g3
sL33356L
g2
sL33357L
g3
sL18819L
g3
sL33950L
g1
sL33363L
g3
sL18912L
g4
sL33364L
g3
sL32860L
g1
sL33367L
g3
sL33850L
g2
sL33368L
g2
sL33369L
g2
sL33370L
g2
sL33372L
g1
sL33373L
g2
sL33375L
g3
sL33376L
g2
sL32862L
g1
sL33378L
g2
sL33380L
g2
sL33381L
g3
sL33382L
g3
sL33383L
g3
sL19507L
g3
sL33384L
g3
sL33385L
g4
sL33386L
g2
sL33387L
g3
sL33388L
g1
sL19660L
g2
sL19665L
g3
sL33392L
g2
sL33393L
g3
sL33394L
g2
sL33398L
g2
sL33402L
g2
sL33403L
g1
sL33404L
g2
sL33405L
g3
sL14287L
g1
sL20214L
g4
sL33407L
g3
sL33408L
g3
sL20266L
g4
sL33409L
g2
sL33410L
g1
sL20339L
g3
sL20365L
g4
sL33414L
g1
sL32979L
g2
sL33416L
g2
sL20516L
g2
sL33417L
g2
sL33852L
g3
sL33418L
g2
sL33420L
g2
sL33421L
g2
sL33422L
g2
sL33425L
g3
sL33427L
g3
sL33428L
g3
sL20884L
g3
sL32873L
g2
sL33432L
g2
sL33433L
g2
sL21049L
g2
sL33435L
g2
sL33437L
g2
sL21133L
g4
sL32787L
g2
sL33440L
g2
sL33966L
g1
sL33441L
g2
sL32875L
g2
sL33443L
g2
sL33446L
g2
sL21472L
g3
sL33449L
g3
sL9048L
g3
sL33968L
g1
sL6175L
g3
sL21682L
g3
sL33461L
g2
sL21850L
g2
sL33466L
g3
sL33467L
g2
sL33468L
g3
sL9138L
g2
sL33474L
g2
sL22260L
g3
sL33475L
g2
sL32882L
g1
sL22301L
g3
sL33477L
g2
sL33478L
g2
sL33481L
g1
sL22453L
g1
sL33482L
g2
sL33483L
g3
sL33486L
g3
sL22670L
g1
sL33490L
g2
sL33492L
g1
sL33493L
g3
sL33495L
g2
sL33496L
g3
sL33498L
g3
sL33501L
g2
sL33502L
g1
sL33503L
g2
sL33504L
g2
sL33505L
g2
sL23171L
g1
sL33506L
g2
sL23214L
g3
sL23222L
g3
sL33507L
g2
sL31181L
g2
sL33508L
g3
sL23263L
g3
sL33509L
g3
sL23369L
g1
sL33519L
g2
sL23630L
g3
sL33521L
g2
sL33524L
g1
sL33525L
g1
sL14887L
g2
sL33529L
g2
sL33530L
g2
sL33984L
g3
sL23960L
g1
sL33831L
g2
sL33534L
g1
sL33536L
g3
sL24148L
g1
sL24333L
g1
sL33545L
g3
sL24375L
g4
sL33987L
g3
sL33546L
g2
sL33547L
g2
sL33549L
g1
sL24536L
g3
sL33551L
g2
sL33552L
g2
sL33553L
g2
sL33554L
g2
sL33555L
g3
sL33556L
g2
sL32898L
g3
sL33557L
g2
sL24729L
g1
sL33558L
g4
sL33559L
g2
sL33560L
g3
sL33562L
g2
sL33564L
g2
sL24999L
g1
sL33567L
g1
sL25026L
g1
sL33568L
g2
sL33570L
g3
sL25143L
g3
sL33572L
g1
sL33573L
g2
sL33574L
g3
sL33575L
g3
sL33576L
g3
sL33577L
g2
sL33578L
g2
sL33579L
g3
sL33581L
g2
sL33582L
g1
sL33583L
g3
sL33584L
g3
sL33585L
g3
sL25582L
g1
sL33586L
g2
sL32904L
g2
sL33587L
g3
sL25627L
g3
sL33592L
g2
sL33593L
g2
sL33595L
g2
sL33597L
g2
sL33598L
g2
sL33599L
g2
sL33601L
g3
sL33605L
g3
sL33607L
g1
sL33611L
g3
sL33613L
g2
sL33614L
g3
sL33615L
g3
sL26477L
g3
sL34001L
g3
sL26541L
g3
sL33618L
g2
sL33619L
g3
sL26587L
g1
sL26607L
g1
sL33620L
g2
sL33624L
g1
sL26742L
g3
sL33625L
g2
sL33627L
g3
sL33630L
g3
sL26926L
g3
sL33631L
g2
sL33632L
g2
sL33638L
g2
sL33639L
g2
sL33640L
g2
sL907L
g1
sL33641L
g2
sL27252L
g3
sL33642L
g3
sL27286L
g3
sL33861L
g2
sL27325L
g1
sL33645L
g2
sL34007L
g1
sL33647L
g2
sL27437L
g1
sL33648L
g3
sL33649L
g2
sL33650L
g2
sL33651L
g2
sL918L
g2
sL33652L
g3
sL33653L
g2
sL27615L
g3
sL27616L
g4
sL27637L
g2
sL27653L
g3
sL33655L
g2
sL33656L
g3
sL27757L
g1
sL27775L
g2
sL27781L
g1
sL33659L
g1
sL27795L
g1
sL33661L
g1
sL27856L
g3
sL27921L
g1
sL27944L
g2
sL33665L
g3
sL27981L
g1
sL33666L
g1
sL27999L
g3
sL33669L
g3
sL33670L
g1
sL28122L
g1
sL32921L
g1
sL33675L
g2
sL33676L
g2
sL28331L
g1
sL33678L
g2
sL33679L
g1
sL33680L
g3
sL28432L
g1
sL28451L
g1
sL28467L
g1
sL33682L
g1
sL33683L
g3
sL28585L
g1
sL28599L
g1
sL33687L
g2
sL33689L
g1
sL33690L
g3
sL28739L
g3
sL33691L
g3
sL28763L
g1
sL28764L
g1
sL28783L
g3
sL28798L
g3
sL33693L
g1
sL33694L
g2
sL28853L
g1
sL33695L
g1
sL28878L
g1
sL28923L
g2
sL33700L
g2
sL33876L
g1
sL33703L
g2
sL29168L
g3
sL34019L
g3
sL29205L
g4
sL29252L
g2
sL29255L
g1
sL33708L
g1
sL29289L
g1
sL33710L
g1
sL34020L
g1
sL33712L
g1
sL29403L
g2
sL29406L
g2
sL33715L
g1
sL29501L
g1
sL29521L
g3
sL33717L
g3
sL29552L
g3
sL29562L
g2
sL29570L
g1
sL33719L
g2
sL29674L
g3
sL33722L
g2
sL29726L
g1
sL28268L
g1
sL29736L
g1
sL29746L
g1
sL33726L
g2
sL29807L
g3
sL33727L
g2
sL29852L
g1
sL29881L
g3
sL33729L
g3
sL29920L
g3
sL29933L
g3
sL33731L
g3
sL29956L
g1
sL32933L
g4
sL33732L
g3
sL33733L
g1
sL30017L
g3
sL33735L
g3
sL30073L
g1
sL33736L
g1
sL30128L
g3
sL33737L
g2
sL33738L
g4
sL30190L
g1
sL33740L
g3
sL30247L
g2
sL30260L
g4
sL30297L
g4
sL33743L
g3
sL30344L
g1
sL30368L
g2
sL30487L
g1
sL30535L
g3
sL33751L
g3
sL33752L
g2
sL30582L
g3
sL33753L
g2
sL30636L
g2
sL33754L
g2
sL30708L
g1
sL33759L
g2
sL30796L
g2
sL33760L
g1
sL30835L
g3
sL30851L
g3
sL30853L
g3
sL30855L
g1
sL33765L
g2
sL30990L
g3
sL30995L
g3
sL33766L
g2
sL31040L
g3
sL31045L
g3
sL33768L
g2
sL31074L
g3
sL31076L
g1
sL31157L
g3
sL32502L
g2
sL33772L
g3
sL31201L
g2
sL31210L
g2
sL33773L
g1
sL31240L
g3
sL31255L
g3
sL31295L
g2
sL31329L
g1
sL31333L
g2
sL31344L
g3
sL31357L
g3
sL31358L
g2
sL31385L
g3
sL31388L
g1
sL31411L
g2
sL31461L
g3
sL31462L
g3
sL31464L
g2
sL33783L
g3
sL31536L
g3
sL31555L
g1
sL31574L
g1
sL34035L
g3
sL31598L
g1
sL31617L
g2
sL31619L
g2
sL31643L
g2
sL33788L
g1
sL33789L
g3
sL31696L
g3
sL31708L
g3
sL31724L
g1
sL31737L
g2
sL31772L
g1
sL31798L
g1
sL31800L
g2
sL31805L
g1
sL31877L
g2
sL33796L
g2
sL5317L
g2
sL32776L
g2
sL31919L
g2
sL31926L
g1
sL31933L
g4
sL31942L
g4
sL34095L
g2
sL31956L
g1
sL31958L
g1
sL31973L
g3
sL31979L
g1
sL31989L
g3
sL32001L
g1
sL32039L
g1
sL32048L
g4
sL32051L
g3
sL32149L
g1
sL32157L
g2
sL32175L
g2
sL32194L
g3
sL32196L
g3
sL33807L
g3
sL32262L
g1
sL32297L
g2
sL32299L
g2
sL32305L
g2
sL32321L
g1
sL32322L
g3
sL32368L
g3
sL32392L
g1
sL32395L
g2
sL32411L
g3
sL32414L
g2
sL32415L
g3
sL32417L
g2
sL32431L
g1
sL32444L
g1
sL32458L
g2
sL32464L
g4
sL32471L
g1
sL32479L
g3
sL32480L
g1
sL32481L
g2
sL33816L
g2
sL32561L
g1
sL32573L
g1
sL32591L
g4
sL32609L
g3
sL32619L
g1
sL32632L
g3
sL32637L
g1
sL32639L
g1
sL32641L
g1
sL32656L
g2
sL32951L
g2
sL32669L
g2
sL32670L
g1
sL32691L
g2
sL32696L
g4
sL32703L
g1
sL32712L
g3
sL32720L
g3
sL32730L
g1
sL32736L
g2
sL32741L
g2
sL32749L
g2
sL32751L
g2
sL32760L
g2
sL32766L
g2
s.